(lp1
S'266.890971985 1406416670.11'
p2
aS'266.704757729 1406416699.11'
p3
aS'266.518673397 1406416728.12'
p4
aS'266.332718899 1406416757.12'
p5
aS'266.146894145 1406416786.13'
p6
aS'265.961199044 1406416815.13'
p7
aS'265.775633505 1406416844.14'
p8
aS'265.590197439 1406416873.14'
p9
aS'265.404890754 1406416902.15'
p10
aS'265.219713361 1406416931.15'
p11
aS'265.034665169 1406416960.16'
p12
aS'264.849746089 1406416989.16'
p13
aS'264.664956029 1406417018.16'
p14
aS'264.480294901 1406417047.17'
p15
aS'264.295762613 1406417076.17'
p16
aS'264.111359077 1406417105.18'
p17
aS'263.927084203 1406417134.18'
p18
aS'263.7429379 1406417163.19'
p19
aS'263.558920079 1406417192.19'
p20
aS'263.37503065 1406417221.2'
p21
aS'263.191269524 1406417250.2'
p22
aS'263.007636611 1406417279.21'
p23
aS'262.824131822 1406417308.21'
p24
aS'262.634434013 1406417338.22'
p25
aS'262.451189614 1406417367.22'
p26
aS'262.268073067 1406417396.23'
p27
aS'262.085084284 1406417425.23'
p28
aS'261.902223175 1406417454.24'
p29
aS'261.719489651 1406417483.24'
p30
aS'261.536883623 1406417512.25'
p31
aS'261.354405003 1406417541.25'
p32
aS'261.172053701 1406417570.26'
p33
aS'260.989829628 1406417599.26'
p34
aS'260.807732696 1406417628.26'
p35
aS'260.625762817 1406417657.27'
p36
aS'260.4439199 1406417686.27'
p37
aS'260.262203859 1406417715.28'
p38
aS'260.080614604 1406417744.28'
p39
aS'259.899152046 1406417773.29'
p40
aS'259.717816098 1406417802.29'
p41
aS'259.536606672 1406417831.3'
p42
aS'259.355523678 1406417860.3'
p43
aS'259.174567028 1406417889.31'
p44
aS'258.993736635 1406417918.31'
p45
aS'258.813032411 1406417947.32'
p46
aS'258.632454267 1406417976.32'
p47
aS'258.452002115 1406418005.33'
p48
aS'258.265459965 1406418035.33'
p49
aS'258.085263871 1406418064.34'
p50
aS'257.905193503 1406418093.34'
p51
aS'257.725248773 1406418122.35'
p52
aS'257.545429594 1406418151.35'
p53
aS'257.365735877 1406418180.36'
p54
aS'257.186167536 1406418209.36'
p55
aS'257.006724482 1406418238.36'
p56
aS'256.827406629 1406418267.37'
p57
aS'256.648213889 1406418296.37'
p58
aS'256.469146174 1406418325.38'
p59
aS'256.290203398 1406418354.38'
p60
aS'256.111385474 1406418383.39'
p61
aS'255.932692313 1406418412.39'
p62
aS'255.75412383 1406418441.4'
p63
aS'255.575679937 1406418470.4'
p64
aS'255.397360547 1406418499.41'
p65
aS'255.219165574 1406418528.41'
p66
aS'255.04109493 1406418557.42'
p67
aS'254.863148529 1406418586.42'
p68
aS'254.685326285 1406418615.43'
p69
aS'254.507628109 1406418644.43'
p70
aS'254.330053917 1406418673.44'
p71
aS'254.146486854 1406418703.44'
p72
aS'253.969164636 1406418732.45'
p73
aS'253.791966139 1406418761.45'
p74
aS'253.614891276 1406418790.46'
p75
aS'253.437939961 1406418819.46'
p76
aS'253.261112108 1406418848.47'
p77
aS'253.08440763 1406418877.47'
p78
aS'252.907826443 1406418906.47'
p79
aS'252.731368459 1406418935.48'
p80
aS'252.555033592 1406418964.48'
p81
aS'252.378821757 1406418993.49'
p82
aS'252.202732869 1406419022.49'
p83
aS'252.02676684 1406419051.5'
p84
aS'251.850923586 1406419080.5'
p85
aS'251.67520302 1406419109.51'
p86
aS'251.499605058 1406419138.51'
p87
aS'251.324129613 1406419167.52'
p88
aS'251.148776601 1406419196.52'
p89
aS'250.973545935 1406419225.53'
p90
aS'250.79843753 1406419254.53'
p91
aS'250.623451302 1406419283.54'
p92
aS'250.448587164 1406419312.54'
p93
aS'250.273845032 1406419341.54'
p94
aS'250.09922482 1406419370.55'
p95
aS'249.918711431 1406419400.55'
p96
aS'249.744339002 1406419429.56'
p97
aS'249.570088235 1406419458.56'
p98
aS'249.395959047 1406419487.57'
p99
aS'249.221951351 1406419516.57'
p100
aS'249.048065063 1406419545.58'
p101
aS'248.874300098 1406419574.58'
p102
aS'248.700656372 1406419603.59'
p103
aS'248.5271338 1406419632.59'
p104
aS'248.353732298 1406419661.6'
p105
aS'248.180451781 1406419690.6'
p106
aS'248.007292165 1406419719.61'
p107
aS'247.834253365 1406419748.61'
p108
aS'247.661335297 1406419777.61'
p109
aS'247.488537876 1406419806.62'
p110
aS'247.31586102 1406419835.62'
p111
aS'247.143304643 1406419864.63'
p112
aS'246.970868661 1406419893.63'
p113
aS'246.798552991 1406419922.64'
p114
aS'246.626357548 1406419951.64'
p115
aS'246.454282249 1406419980.65'
p116
aS'246.282327009 1406420009.65'
p117
aS'246.110491746 1406420038.66'
p118
aS'245.932857293 1406420068.66'
p119
aS'245.76126586 1406420097.67'
p120
aS'245.58979415 1406420126.67'
p121
aS'245.418442078 1406420155.68'
p122
aS'245.247209562 1406420184.68'
p123
aS'245.076096517 1406420213.68'
p124
aS'244.905102861 1406420242.69'
p125
aS'244.73422851 1406420271.69'
p126
aS'244.563473381 1406420300.7'
p127
aS'244.39283739 1406420329.7'
p128
aS'244.222320455 1406420358.71'
p129
aS'244.051922492 1406420387.71'
p130
aS'243.881643419 1406420416.72'
p131
aS'243.711483153 1406420445.72'
p132
aS'243.54144161 1406420474.73'
p133
aS'243.371518708 1406420503.73'
p134
aS'243.201714364 1406420532.74'
p135
aS'243.032028495 1406420561.74'
p136
aS'242.862461019 1406420590.74'
p137
aS'242.693011853 1406420619.75'
p138
aS'242.523680914 1406420648.75'
p139
aS'242.35446812 1406420677.76'
p140
aS'242.185373389 1406420706.76'
p141
aS'242.016396639 1406420735.77'
p142
aS'241.841717168 1406420765.77'
p143
aS'241.672980192 1406420794.78'
p144
aS'241.504360947 1406420823.78'
p145
aS'241.335859349 1406420852.79'
p146
aS'241.167475319 1406420881.79'
p147
aS'240.999208772 1406420910.79'
p148
aS'240.831059628 1406420939.8'
p149
aS'240.663027804 1406420968.8'
p150
aS'240.495113219 1406420997.81'
p151
aS'240.327315791 1406421026.81'
p152
aS'240.159635438 1406421055.82'
p153
aS'239.992072078 1406421084.82'
p154
aS'239.82462563 1406421113.83'
p155
aS'239.657296012 1406421142.83'
p156
aS'239.490083143 1406421171.84'
p157
aS'239.32298694 1406421200.84'
p158
aS'239.156007324 1406421229.85'
p159
aS'238.989144212 1406421258.85'
p160
aS'238.822397524 1406421287.86'
p161
aS'238.655767177 1406421316.86'
p162
aS'238.489253091 1406421345.87'
p163
aS'238.322855184 1406421374.87'
p164
aS'238.156573376 1406421403.88'
p165
aS'237.990407586 1406421432.88'
p166
aS'237.818633942 1406421462.88'
p167
aS'237.652703938 1406421491.89'
p168
aS'237.486889706 1406421520.89'
p169
aS'237.321191165 1406421549.9'
p170
aS'237.155608235 1406421578.9'
p171
aS'236.990140835 1406421607.91'
p172
aS'236.824788884 1406421636.91'
p173
aS'236.659552302 1406421665.92'
p174
aS'236.494431008 1406421694.92'
p175
aS'236.329424922 1406421723.93'
p176
aS'236.164533963 1406421752.93'
p177
aS'235.999758052 1406421781.94'
p178
aS'235.835097108 1406421810.94'
p179
aS'235.67055105 1406421839.95'
p180
aS'235.506119799 1406421868.95'
p181
aS'235.341803274 1406421897.95'
p182
aS'235.177601395 1406421926.96'
p183
aS'235.013514083 1406421955.96'
p184
aS'234.849541257 1406421984.97'
p185
aS'234.685682838 1406422013.97'
p186
aS'234.521938746 1406422042.98'
p187
aS'234.358308901 1406422071.98'
p188
aS'234.194793222 1406422100.99'
p189
aS'234.031391632 1406422129.99'
p190
aS'233.862475475 1406422160.0'
p191
aS'233.699305749 1406422189.0'
p192
aS'233.536249868 1406422218.01'
p193
aS'233.373307754 1406422247.01'
p194
aS'233.210479327 1406422276.02'
p195
aS'233.047764509 1406422305.02'
p196
aS'232.885163219 1406422334.03'
p197
aS'232.722675379 1406422363.03'
p198
aS'232.56030091 1406422392.04'
p199
aS'232.398039732 1406422421.04'
p200
aS'232.235891766 1406422450.05'
p201
aS'232.073856933 1406422479.05'
p202
aS'231.911935155 1406422508.05'
p203
aS'231.750126353 1406422537.06'
p204
aS'231.588430447 1406422566.06'
p205
aS'231.426847359 1406422595.07'
p206
aS'231.26537701 1406422624.07'
p207
aS'231.104019322 1406422653.08'
p208
aS'230.942774215 1406422682.08'
p209
aS'230.781641612 1406422711.09'
p210
aS'230.620621434 1406422740.09'
p211
aS'230.459713603 1406422769.1'
p212
aS'230.298918039 1406422798.1'
p213
aS'230.138234665 1406422827.11'
p214
aS'229.972128461 1406422857.11'
p215
aS'229.811673094 1406422886.12'
p216
aS'229.651329679 1406422915.12'
p217
aS'229.491098138 1406422944.13'
p218
aS'229.330978394 1406422973.13'
p219
aS'229.170970368 1406423002.14'
p220
aS'229.011073982 1406423031.14'
p221
aS'228.851289158 1406423060.15'
p222
aS'228.691615819 1406423089.15'
p223
aS'228.532053886 1406423118.16'
p224
aS'228.372603283 1406423147.16'
p225
aS'228.213263931 1406423176.17'
p226
aS'228.054035753 1406423205.17'
p227
aS'227.89491867 1406423234.18'
p228
aS'227.735912607 1406423263.18'
p229
aS'227.577017484 1406423292.18'
p230
aS'227.418233226 1406423321.19'
p231
aS'227.259559753 1406423350.19'
p232
aS'227.10099699 1406423379.2'
p233
aS'226.942544859 1406423408.2'
p234
aS'226.784203282 1406423437.21'
p235
aS'226.625972183 1406423466.21'
p236
aS'226.467851485 1406423495.22'
p237
aS'226.309841109 1406423524.22'
p238
aS'226.146498114 1406423554.23'
p239
aS'225.988711952 1406423583.23'
p240
aS'225.831035881 1406423612.24'
p241
aS'225.673469823 1406423641.24'
p242
aS'225.516013701 1406423670.25'
p243
aS'225.358667438 1406423699.25'
p244
aS'225.201430959 1406423728.25'
p245
aS'225.044304187 1406423757.26'
p246
aS'224.887287044 1406423786.26'
p247
aS'224.730379455 1406423815.27'
p248
aS'224.573581343 1406423844.27'
p249
aS'224.416892631 1406423873.28'
p250
aS'224.260313244 1406423902.28'
p251
aS'224.103843105 1406423931.29'
p252
aS'223.947482138 1406423960.29'
p253
aS'223.791230266 1406423989.3'
p254
aS'223.635087414 1406424018.3'
p255
aS'223.479053505 1406424047.31'
p256
aS'223.323128464 1406424076.31'
p257
aS'223.167312214 1406424105.32'
p258
aS'223.01160468 1406424134.32'
p259
aS'222.856005786 1406424163.33'
p260
aS'222.700515455 1406424192.33'
p261
aS'222.545133613 1406424221.33'
p262
aS'222.384507859 1406424251.34'
p263
aS'222.229346501 1406424280.34'
p264
aS'222.074293401 1406424309.35'
p265
aS'221.919348484 1406424338.35'
p266
aS'221.764511675 1406424367.36'
p267
aS'221.609782898 1406424396.36'
p268
aS'221.455162078 1406424425.37'
p269
aS'221.300649139 1406424454.37'
p270
aS'221.146244007 1406424483.38'
p271
aS'220.991946605 1406424512.38'
p272
aS'220.83775686 1406424541.38'
p273
aS'220.683674695 1406424570.39'
p274
aS'220.529700036 1406424599.39'
p275
aS'220.375832807 1406424628.4'
p276
aS'220.222072935 1406424657.4'
p277
aS'220.068420343 1406424686.41'
p278
aS'219.914874957 1406424715.41'
p279
aS'219.761436702 1406424744.42'
p280
aS'219.608105504 1406424773.42'
p281
aS'219.454881287 1406424802.43'
p282
aS'219.301763977 1406424831.43'
p283
aS'219.1487535 1406424860.44'
p284
aS'218.995849781 1406424889.44'
p285
aS'218.837785784 1406424919.45'
p286
aS'218.685099032 1406424948.45'
p287
aS'218.532518812 1406424977.46'
p288
aS'218.38004505 1406425006.46'
p289
aS'218.227677672 1406425035.46'
p290
aS'0.0 1406425059.47'
p291
aS'0.0 1406425059.47'
p292
aS'0.0 1406425059.47'
p293
aS'0.0 1406425059.47'
p294
aS'0.0 1406425059.47'
p295
aS'0.0 1406425059.47'
p296
aS'0.0 1406425059.47'
p297
aS'0.0 1406425059.47'
p298
aS'0.0 1406425059.47'
p299
aS'0.0 1406425059.47'
p300
aS'0.0 1406425059.47'
p301
aS'0.0 1406425059.47'
p302
aS'0.0 1406425059.47'
p303
aS'0.0 1406425059.47'
p304
aS'0.0 1406425059.47'
p305
aS'0.0 1406425059.47'
p306
aS'0.0 1406425059.47'
p307
aS'0.0 1406425059.47'
p308
aS'0.0 1406425059.47'
p309
aS'0.0 1406425059.47'
p310
aS'0.0 1406425059.47'
p311
aS'0.0 1406425059.47'
p312
aS'0.0 1406425059.47'
p313
aS'0.0 1406425059.47'
p314
aS'0.0 1406425059.47'
p315
aS'0.0 1406425059.47'
p316
aS'0.0 1406425059.47'
p317
aS'0.0 1406425059.47'
p318
aS'0.0 1406425059.47'
p319
aS'0.0 1406425059.47'
p320
aS'0.0 1406425059.47'
p321
aS'0.0 1406425059.47'
p322
aS'0.0 1406425059.47'
p323
aS'0.0 1406425059.47'
p324
aS'0.0 1406425059.47'
p325
aS'0.0 1406425059.47'
p326
aS'0.0 1406425059.47'
p327
aS'0.0 1406425059.47'
p328
aS'0.0 1406425059.47'
p329
aS'0.0 1406425059.47'
p330
aS'0.0 1406425059.47'
p331
aS'0.0 1406425059.47'
p332
aS'0.0 1406425059.47'
p333
aS'0.0 1406425059.47'
p334
aS'0.0 1406425059.47'
p335
aS'0.0 1406425059.47'
p336
aS'0.0 1406425059.47'
p337
aS'0.0 1406425059.47'
p338
aS'0.0 1406425059.47'
p339
aS'0.0 1406425059.47'
p340
aS'0.0 1406425059.47'
p341
aS'0.0 1406425059.47'
p342
aS'0.0 1406425059.47'
p343
aS'0.0 1406425059.47'
p344
aS'0.0 1406425059.47'
p345
aS'0.0 1406425059.47'
p346
aS'0.0 1406425059.47'
p347
aS'0.0 1406425059.47'
p348
aS'0.0 1406425059.47'
p349
aS'0.0 1406425059.47'
p350
aS'0.0 1406425059.47'
p351
aS'0.0 1406425059.47'
p352
aS'0.0 1406425059.47'
p353
aS'0.0 1406425059.47'
p354
aS'0.0 1406425059.47'
p355
aS'0.0 1406425059.47'
p356
aS'0.0 1406425059.47'
p357
aS'0.0 1406425059.47'
p358
aS'0.0 1406425059.47'
p359
aS'0.0 1406425059.47'
p360
aS'0.0 1406425059.47'
p361
aS'0.0 1406425059.47'
p362
aS'0.0 1406425059.47'
p363
aS'0.0 1406425059.47'
p364
aS'0.0 1406425059.47'
p365
aS'0.0 1406425059.47'
p366
aS'0.0 1406425059.47'
p367
aS'0.0 1406425059.47'
p368
aS'0.0 1406425059.47'
p369
aS'0.0 1406425059.47'
p370
aS'0.0 1406425059.47'
p371
aS'0.0 1406425059.47'
p372
aS'0.0 1406425059.47'
p373
aS'0.0 1406425059.47'
p374
aS'0.0 1406425059.47'
p375
aS'0.0 1406425059.47'
p376
aS'0.0 1406425059.47'
p377
aS'0.0 1406425059.47'
p378
aS'0.0 1406425059.47'
p379
aS'0.0 1406425059.47'
p380
aS'0.0 1406425059.47'
p381
aS'0.0 1406425059.47'
p382
aS'0.0 1406425059.47'
p383
aS'0.0 1406425059.47'
p384
aS'0.0 1406425059.47'
p385
aS'0.0 1406425059.47'
p386
aS'0.0 1406425059.47'
p387
aS'0.0 1406425059.47'
p388
aS'0.0 1406425059.47'
p389
aS'0.0 1406425059.47'
p390
aS'0.0 1406425059.47'
p391
aS'0.0 1406425059.47'
p392
aS'0.0 1406425059.47'
p393
aS'0.0 1406425059.47'
p394
aS'0.0 1406425059.47'
p395
aS'0.0 1406425059.47'
p396
aS'0.0 1406425059.47'
p397
aS'0.0 1406425059.47'
p398
aS'0.0 1406425059.47'
p399
aS'0.0 1406425059.47'
p400
aS'0.0 1406425059.47'
p401
aS'0.0 1406425059.47'
p402
aS'0.0 1406425059.47'
p403
aS'0.0 1406425059.47'
p404
aS'0.0 1406425059.47'
p405
aS'0.0 1406425059.47'
p406
aS'0.0 1406425059.47'
p407
aS'0.0 1406425059.47'
p408
aS'0.0 1406425059.47'
p409
aS'0.0 1406425059.47'
p410
aS'0.0 1406425059.47'
p411
aS'0.0 1406425059.47'
p412
aS'0.0 1406425059.47'
p413
aS'0.0 1406425059.47'
p414
aS'399.942241955 1406428666.06'
p415
aS'399.663195621 1406428695.06'
p416
aS'399.384343983 1406428724.07'
p417
aS'399.105686904 1406428753.07'
p418
aS'398.827224248 1406428782.08'
p419
aS'398.548955881 1406428811.08'
p420
aS'398.270881665 1406428840.09'
p421
aS'397.993001467 1406428869.09'
p422
aS'397.715315151 1406428898.1'
p423
aS'397.437822581 1406428927.1'
p424
aS'397.160523622 1406428956.11'
p425
aS'396.883418139 1406428985.11'
p426
aS'396.606505997 1406429014.12'
p427
aS'396.320248474 1406429044.12'
p428
aS'396.043729265 1406429073.13'
p429
aS'395.767402988 1406429102.13'
p430
aS'395.491269508 1406429131.14'
p431
aS'395.215328692 1406429160.14'
p432
aS'394.939580404 1406429189.14'
p433
aS'394.66402451 1406429218.15'
p434
aS'394.388660876 1406429247.15'
p435
aS'394.113489367 1406429276.16'
p436
aS'393.838509851 1406429305.16'
p437
aS'393.563722192 1406429334.17'
p438
aS'393.289126257 1406429363.17'
p439
aS'393.014721912 1406429392.18'
p440
aS'392.740509024 1406429421.18'
p441
aS'392.466487459 1406429450.19'
p442
aS'392.192657083 1406429479.19'
p443
aS'391.919017763 1406429508.2'
p444
aS'391.645569365 1406429537.2'
p445
aS'391.372311758 1406429566.2'
p446
aS'391.099244806 1406429595.21'
p447
aS'390.826368378 1406429624.21'
p448
aS'390.55368234 1406429653.22'
p449
aS'390.28118656 1406429682.22'
p450
aS'390.008880905 1406429711.23'
p451
aS'389.72738533 1406429741.23'
p452
aS'389.455466071 1406429770.24'
p453
aS'389.183736534 1406429799.24'
p454
aS'388.912196588 1406429828.25'
p455
aS'388.6408461 1406429857.25'
p456
aS'388.369684937 1406429886.26'
p457
aS'388.098712968 1406429915.26'
p458
aS'387.827930061 1406429944.27'
p459
aS'387.557336083 1406429973.27'
p460
aS'387.286930904 1406430002.28'
p461
aS'387.01671439 1406430031.28'
p462
aS'386.746686411 1406430060.28'
p463
aS'386.476846835 1406430089.29'
p464
aS'386.207195531 1406430118.29'
p465
aS'385.937732367 1406430147.3'
p466
aS'385.668457211 1406430176.3'
p467
aS'385.399369934 1406430205.31'
p468
aS'385.130470403 1406430234.31'
p469
aS'384.861758488 1406430263.32'
p470
aS'384.593234057 1406430292.32'
p471
aS'384.324896981 1406430321.33'
p472
aS'384.056747127 1406430350.33'
p473
aS'383.788784366 1406430379.34'
p474
aS'383.521008568 1406430408.34'
p475
aS'383.244195726 1406430438.34'
p476
aS'382.976799896 1406430467.35'
p477
aS'382.709590632 1406430496.35'
p478
aS'382.442567805 1406430525.36'
p479
aS'382.175731284 1406430554.36'
p480
aS'381.909080939 1406430583.37'
p481
aS'381.64261664 1406430612.37'
p482
aS'381.376338259 1406430641.38'
p483
aS'381.110245664 1406430670.38'
p484
aS'380.844338726 1406430699.39'
p485
aS'380.578617316 1406430728.39'
p486
aS'380.313081304 1406430757.4'
p487
aS'380.047730561 1406430786.4'
p488
aS'379.782564957 1406430815.41'
p489
aS'379.517584364 1406430844.41'
p490
aS'379.252788653 1406430873.42'
p491
aS'378.988177694 1406430902.42'
p492
aS'378.723751358 1406430931.42'
p493
aS'378.459509517 1406430960.43'
p494
aS'378.195452041 1406430989.43'
p495
aS'377.931578803 1406431018.44'
p496
aS'377.667889674 1406431047.44'
p497
aS'377.404384525 1406431076.45'
p498
aS'377.141063228 1406431105.45'
p499
aS'376.868855221 1406431135.46'
p500
aS'376.605907571 1406431164.46'
p501
aS'376.343143385 1406431193.47'
p502
aS'376.080562533 1406431222.47'
p503
aS'375.818164889 1406431251.48'
p504
aS'375.555950324 1406431280.48'
p505
aS'375.29391871 1406431309.49'
p506
aS'375.03206992 1406431338.49'
p507
aS'374.770403826 1406431367.5'
p508
aS'374.508920301 1406431396.5'
p509
aS'374.247619217 1406431425.51'
p510
aS'373.986500448 1406431454.51'
p511
aS'373.725563865 1406431483.51'
p512
aS'373.464809342 1406431512.52'
p513
aS'373.204236752 1406431541.52'
p514
aS'372.943845968 1406431570.53'
p515
aS'372.683636863 1406431599.53'
p516
aS'372.423609309 1406431628.54'
p517
aS'372.163763182 1406431657.54'
p518
aS'371.904098353 1406431686.55'
p519
aS'371.644614697 1406431715.55'
p520
aS'371.385312087 1406431744.56'
p521
aS'371.126190397 1406431773.56'
p522
aS'370.8672495 1406431802.57'
p523
aS'370.60848927 1406431831.57'
p524
aS'370.34099626 1406431861.58'
p525
aS'370.082603206 1406431890.58'
p526
aS'369.824390437 1406431919.59'
p527
aS'369.566357827 1406431948.59'
p528
aS'369.308505252 1406431977.6'
p529
aS'369.050832584 1406432006.6'
p530
aS'368.793339698 1406432035.6'
p531
aS'368.53602647 1406432064.61'
p532
aS'368.278892774 1406432093.61'
p533
aS'368.021938483 1406432122.62'
p534
aS'367.765163475 1406432151.62'
p535
aS'367.508567622 1406432180.63'
p536
aS'367.2521508 1406432209.63'
p537
aS'366.995912885 1406432238.64'
p538
aS'366.739853751 1406432267.64'
p539
aS'366.483973274 1406432296.65'
p540
aS'366.228271329 1406432325.65'
p541
aS'365.972747792 1406432354.66'
p542
aS'365.717402537 1406432383.66'
p543
aS'365.462235441 1406432412.67'
p544
aS'365.20724638 1406432441.67'
p545
aS'364.952435228 1406432470.68'
p546
aS'364.697801863 1406432499.68'
p547
aS'364.443346159 1406432528.68'
p548
aS'364.180302946 1406432558.69'
p549
aS'363.92620831 1406432587.69'
p550
aS'363.67229096 1406432616.7'
p551
aS'363.418550772 1406432645.7'
p552
aS'363.164987623 1406432674.71'
p553
aS'362.91160139 1406432703.71'
p554
aS'362.658391948 1406432732.72'
p555
aS'362.405359174 1406432761.72'
p556
aS'362.152502946 1406432790.73'
p557
aS'361.899823139 1406432819.73'
p558
aS'361.647319632 1406432848.74'
p559
aS'361.3949923 1406432877.74'
p560
aS'361.142841022 1406432906.75'
p561
aS'360.890865673 1406432935.75'
p562
aS'360.639066132 1406432964.75'
p563
aS'360.387442276 1406432993.76'
p564
aS'360.135993982 1406433022.76'
p565
aS'359.884721127 1406433051.77'
p566
aS'359.63362359 1406433080.77'
p567
aS'359.382701247 1406433109.78'
p568
aS'359.131953977 1406433138.78'
p569
aS'358.881381658 1406433167.79'
p570
aS'358.630984167 1406433196.79'
p571
aS'358.372136126 1406433226.8'
p572
aS'358.122093944 1406433255.8'
p573
aS'357.872226221 1406433284.81'
p574
aS'357.622532834 1406433313.81'
p575
aS'357.373013663 1406433342.82'
p576
aS'357.123668586 1406433371.82'
p577
aS'356.874497481 1406433400.83'
p578
aS'356.625500226 1406433429.83'
p579
aS'356.376676701 1406433458.84'
p580
aS'356.128026785 1406433487.84'
p581
aS'355.879550355 1406433516.84'
p582
aS'355.631247292 1406433545.85'
p583
aS'355.383117474 1406433574.85'
p584
aS'355.13516078 1406433603.86'
p585
aS'354.88737709 1406433632.86'
p586
aS'354.639766282 1406433661.87'
p587
aS'354.392328237 1406433690.87'
p588
aS'354.145062833 1406433719.88'
p589
aS'353.89796995 1406433748.88'
p590
aS'353.651049468 1406433777.89'
p591
aS'353.404301267 1406433806.89'
p592
aS'353.157725226 1406433835.9'
p593
aS'352.911321225 1406433864.9'
p594
aS'352.665089145 1406433893.91'
p595
aS'352.41054709 1406433923.91'
p596
aS'352.164664407 1406433952.92'
p597
aS'351.918953282 1406433981.92'
p598
aS'351.673413593 1406434010.93'
p599
aS'351.428045221 1406434039.93'
p600
aS'351.182848046 1406434068.94'
p601
aS'350.93782195 1406434097.94'
p602
aS'350.692966813 1406434126.95'
p603
aS'350.448282515 1406434155.95'
p604
aS'350.203768937 1406434184.95'
p605
aS'349.95942596 1406434213.96'
p606
aS'349.715253466 1406434242.96'
p607
aS'349.471251335 1406434271.97'
p608
aS'349.227419448 1406434300.97'
p609
aS'348.983757687 1406434329.98'
p610
aS'348.740265932 1406434358.98'
p611
aS'348.496944066 1406434387.99'
p612
aS'348.25379197 1406434416.99'
p613
aS'348.010809524 1406434446.0'
p614
aS'347.767996612 1406434475.0'
p615
aS'347.525353114 1406434504.01'
p616
aS'347.282878913 1406434533.01'
p617
aS'347.04057389 1406434562.02'
p618
aS'346.798437927 1406434591.02'
p619
aS'346.548130228 1406434621.02'
p620
aS'346.306337851 1406434650.03'
p621
aS'346.064714177 1406434679.03'
p622
aS'345.823259087 1406434708.04'
p623
aS'345.581972465 1406434737.04'
p624
aS'345.340854193 1406434766.05'
p625
aS'345.099904153 1406434795.05'
p626
aS'344.859122227 1406434824.06'
p627
aS'344.618508299 1406434853.06'
p628
aS'344.378062252 1406434882.07'
p629
aS'344.137783967 1406434911.07'
p630
aS'343.897673329 1406434940.08'
p631
aS'343.65773022 1406434969.08'
p632
aS'343.417954523 1406434998.09'
p633
aS'343.178346122 1406435027.09'
p634
aS'342.9389049 1406435056.1'
p635
aS'342.699630739 1406435085.1'
p636
aS'342.460523524 1406435114.11'
p637
aS'342.221583138 1406435143.11'
p638
aS'341.982809465 1406435172.12'
p639
aS'341.744202389 1406435201.12'
p640
aS'341.505761792 1406435230.12'
p641
aS'341.267487559 1406435259.13'
p642
aS'341.029379574 1406435288.13'
p643
aS'340.783235792 1406435318.14'
p644
aS'340.545465677 1406435347.14'
p645
aS'340.307861459 1406435376.15'
p646
aS'340.070423021 1406435405.15'
p647
aS'339.833150248 1406435434.16'
p648
aS'339.596043025 1406435463.16'
p649
aS'339.359101234 1406435492.17'
p650
aS'339.122324762 1406435521.17'
p651
aS'338.885713493 1406435550.18'
p652
aS'338.649267312 1406435579.18'
p653
aS'338.412986102 1406435608.19'
p654
aS'338.176869751 1406435637.19'
p655
aS'337.940918141 1406435666.2'
p656
aS'337.705131159 1406435695.2'
p657
aS'337.469508689 1406435724.21'
p658
aS'337.234050617 1406435753.21'
p659
aS'336.998756828 1406435782.21'
p660
aS'336.763627208 1406435811.22'
p661
aS'336.528661641 1406435840.22'
p662
aS'336.293860013 1406435869.23'
p663
aS'336.059222211 1406435898.23'
p664
aS'335.824748119 1406435927.24'
p665
aS'335.590437624 1406435956.24'
p666
aS'335.356290611 1406435985.25'
p667
aS'335.114241477 1406436015.25'
p668
aS'334.880426714 1406436044.26'
p669
aS'334.646775088 1406436073.26'
p670
aS'334.413286484 1406436102.27'
p671
aS'334.179960789 1406436131.27'
p672
aS'333.946797889 1406436160.28'
p673
aS'333.713797671 1406436189.28'
p674
aS'333.480960021 1406436218.28'
p675
aS'333.248284825 1406436247.29'
p676
aS'333.015771971 1406436276.29'
p677
aS'332.783421345 1406436305.3'
p678
aS'332.551232834 1406436334.3'
p679
aS'332.319206325 1406436363.31'
p680
aS'332.087341704 1406436392.31'
p681
aS'331.855638859 1406436421.32'
p682
aS'331.624097677 1406436450.32'
p683
aS'331.392718045 1406436479.33'
p684
aS'331.161499851 1406436508.33'
p685
aS'330.930442981 1406436537.34'
p686
aS'330.699547324 1406436566.34'
p687
aS'330.468812766 1406436595.35'
p688
aS'330.238239196 1406436624.35'
p689
aS'330.007826501 1406436653.36'
p690
aS'329.777574568 1406436682.36'
p691
aS'329.547483286 1406436711.37'
p692
aS'329.309626758 1406436741.37'
p693
aS'329.079861971 1406436770.38'
p694
aS'328.850257495 1406436799.38'
p695
aS'328.620813217 1406436828.39'
p696
aS'328.391529027 1406436857.39'
p697
aS'328.162404812 1406436886.4'
p698
aS'327.933440461 1406436915.4'
p699
aS'327.704635861 1406436944.41'
p700
aS'327.475990903 1406436973.41'
p701
aS'327.247505474 1406437002.41'
p702
aS'327.019179463 1406437031.42'
p703
aS'326.791012759 1406437060.42'
p704
aS'326.563005251 1406437089.43'
p705
aS'326.335156827 1406437118.43'
p706
aS'326.107467377 1406437147.44'
p707
aS'325.87993679 1406437176.44'
p708
aS'325.652564955 1406437205.45'
p709
aS'325.42535176 1406437234.45'
p710
aS'325.198297096 1406437263.46'
p711
aS'324.971400852 1406437292.46'
p712
aS'324.744662917 1406437321.47'
p713
aS'324.518083181 1406437350.47'
p714
aS'324.291661533 1406437379.48'
p715
aS'324.057598485 1406437409.48'
p716
aS'323.831498125 1406437438.49'
p717
aS'323.605555519 1406437467.49'
p718
aS'323.379770557 1406437496.49'
p719
aS'323.154143129 1406437525.5'
p720
aS'322.928673125 1406437554.5'
p721
aS'322.703360435 1406437583.51'
p722
aS'322.478204949 1406437612.51'
p723
aS'322.253206559 1406437641.52'
p724
aS'322.028365153 1406437670.52'
p725
aS'321.803680623 1406437699.53'
p726
aS'321.579152859 1406437728.53'
p727
aS'321.354781752 1406437757.54'
p728
aS'321.130567192 1406437786.54'
p729
aS'320.90650907 1406437815.55'
p730
aS'320.682607278 1406437844.55'
p731
aS'320.458861705 1406437873.55'
p732
aS'320.235272244 1406437902.56'
p733
aS'320.011838784 1406437931.57'
p734
aS'319.788561218 1406437960.57'
p735
aS'319.565439436 1406437989.57'
p736
aS'319.34247333 1406438018.58'
p737
aS'319.119662792 1406438047.58'
p738
aS'318.897007711 1406438076.59'
p739
aS'318.666838346 1406438106.59'
p740
aS'318.444499209 1406438135.6'
p741
aS'318.222315202 1406438164.6'
p742
aS'318.000286216 1406438193.61'
p743
aS'317.778412143 1406438222.61'
p744
aS'317.556692876 1406438251.62'
p745
aS'317.335128306 1406438280.62'
p746
aS'317.113718325 1406438309.63'
p747
aS'316.892462825 1406438338.63'
p748
aS'316.671361699 1406438367.63'
p749
aS'316.450414839 1406438396.64'
p750
aS'316.229622138 1406438425.64'
p751
aS'316.008983487 1406438454.65'
p752
aS'315.788498779 1406438483.65'
p753
aS'315.568167907 1406438512.66'
p754
aS'315.347990764 1406438541.66'
p755
aS'315.127967242 1406438570.67'
p756
aS'314.908097234 1406438599.67'
p757
aS'314.688380633 1406438628.68'
p758
aS'314.468817331 1406438657.68'
p759
aS'314.249407223 1406438686.69'
p760
aS'314.030150201 1406438715.69'
p761
aS'313.811046158 1406438744.69'
p762
aS'313.592094988 1406438773.7'
p763
aS'313.365754534 1406438803.7'
p764
aS'313.147114051 1406438832.71'
p765
aS'312.928626117 1406438861.71'
p766
aS'312.710290626 1406438890.72'
p767
aS'312.492107471 1406438919.72'
p768
aS'312.274076546 1406438948.73'
p769
aS'312.056197745 1406438977.73'
p770
aS'311.838470961 1406439006.74'
p771
aS'311.620896089 1406439035.74'
p772
aS'311.403473023 1406439064.75'
p773
aS'311.186201656 1406439093.75'
p774
aS'310.969081883 1406439122.76'
p775
aS'310.752113598 1406439151.76'
p776
aS'310.535296696 1406439180.77'
p777
aS'310.31863107 1406439209.77'
p778
aS'310.102116616 1406439238.78'
p779
aS'309.885753227 1406439267.78'
p780
aS'309.669540799 1406439296.79'
p781
aS'309.453479225 1406439325.79'
p782
aS'309.237568402 1406439354.8'
p783
aS'309.021808223 1406439383.8'
p784
aS'308.806198583 1406439412.81'
p785
aS'308.590739378 1406439441.81'
p786
aS'308.375430502 1406439470.82'
p787
aS'308.152855265 1406439500.82'
p788
aS'307.937851908 1406439529.83'
p789
aS'307.722998563 1406439558.83'
p790
aS'307.508295124 1406439587.83'
p791
aS'307.293741488 1406439616.84'
p792
aS'307.079337549 1406439645.84'
p793
aS'306.865083203 1406439674.85'
p794
aS'306.650978346 1406439703.85'
p795
aS'306.437022874 1406439732.86'
p796
aS'306.223216682 1406439761.86'
p797
aS'306.009559666 1406439790.87'
p798
aS'305.796051722 1406439819.87'
p799
aS'305.582692746 1406439848.88'
p800
aS'305.369482635 1406439877.88'
p801
aS'305.156421283 1406439906.89'
p802
aS'304.943508588 1406439935.89'
p803
aS'304.730744446 1406439964.9'
p804
aS'304.518128752 1406439993.9'
p805
aS'304.305661404 1406440022.91'
p806
aS'304.093342299 1406440051.91'
p807
aS'303.881171331 1406440080.92'
p808
aS'303.669148399 1406440109.92'
p809
aS'303.457273399 1406440138.93'
p810
aS'303.245546228 1406440167.93'
p811
aS'303.026673572 1406440197.93'
p812
aS'302.815246838 1406440226.94'
p813
aS'302.603967619 1406440255.94'
p814
aS'302.392835813 1406440284.95'
p815
aS'302.181851317 1406440313.95'
p816
aS'301.971014029 1406440342.96'
p817
aS'301.760323845 1406440371.96'
p818
aS'301.549780664 1406440400.97'
p819
aS'301.339384381 1406440429.97'
p820
aS'301.129134896 1406440458.98'
p821
aS'300.919032106 1406440487.98'
p822
aS'300.709075907 1406440516.99'
p823
aS'300.499266199 1406440545.99'
p824
aS'300.289602878 1406440575.0'
p825
aS'300.080085843 1406440604.0'
p826
aS'299.870714991 1406440633.01'
p827
aS'299.661490221 1406440662.01'
p828
aS'299.45241143 1406440691.01'
p829
aS'299.243478518 1406440720.02'
p830
aS'299.034691381 1406440749.02'
p831
aS'298.826049918 1406440778.03'
p832
aS'298.617554028 1406440807.03'
p833
aS'298.409203609 1406440836.04'
p834
aS'298.20099856 1406440865.04'
p835
aS'297.992938778 1406440894.05'
p836
aS'297.777857282 1406440924.05'
p837
aS'297.570092734 1406440953.06'
p838
aS'297.362473146 1406440982.06'
p839
aS'297.154998417 1406441011.07'
p840
aS'296.947668448 1406441040.07'
p841
aS'296.740483136 1406441069.08'
p842
aS'296.53344238 1406441098.08'
p843
aS'296.32654608 1406441127.09'
p844
aS'296.119794136 1406441156.09'
p845
aS'295.913186445 1406441185.1'
p846
aS'295.706722908 1406441214.1'
p847
aS'295.500403424 1406441243.11'
p848
aS'295.294227893 1406441272.11'
p849
aS'295.088196214 1406441301.12'
p850
aS'294.882308286 1406441330.12'
p851
aS'294.67656401 1406441359.13'
p852
aS'294.470963285 1406441388.13'
p853
aS'294.265506011 1406441417.14'
p854
aS'294.060192089 1406441446.14'
p855
aS'293.855021417 1406441475.14'
p856
aS'293.649993896 1406441504.15'
p857
aS'293.445109426 1406441533.15'
p858
aS'293.240367907 1406441562.16'
p859
aS'293.03576924 1406441591.16'
p860
aS'292.824265666 1406441621.17'
p861
aS'292.61995732 1406441650.17'
p862
aS'292.415791524 1406441679.18'
p863
aS'292.211768177 1406441708.18'
p864
aS'292.007887181 1406441737.19'
p865
aS'291.804148436 1406441766.19'
p866
aS'291.600551844 1406441795.2'
p867
aS'291.397097303 1406441824.2'
p868
aS'291.193784717 1406441853.21'
p869
aS'290.990613985 1406441882.21'
p870
aS'290.787585008 1406441911.22'
p871
aS'290.584697688 1406441940.22'
p872
aS'290.381951927 1406441969.22'
p873
aS'290.179347624 1406441998.23'
p874
aS'289.976884681 1406442027.23'
p875
aS'289.774563001 1406442056.24'
p876
aS'289.572382483 1406442085.24'
p877
aS'289.37034303 1406442114.25'
p878
aS'289.168444544 1406442143.25'
p879
aS'288.966686925 1406442172.26'
p880
aS'288.765070076 1406442201.26'
p881
aS'288.563593898 1406442230.27'
p882
aS'288.362258294 1406442259.27'
p883
aS'288.161063165 1406442288.28'
p884
aS'287.953077993 1406442318.28'
p885
aS'287.752168356 1406442347.29'
p886
aS'287.551398897 1406442376.29'
p887
aS'287.350769518 1406442405.3'
p888
aS'287.150280121 1406442434.3'
p889
aS'286.949930609 1406442463.31'
p890
aS'286.749720885 1406442492.31'
p891
aS'286.54965085 1406442521.32'
p892
aS'286.349720407 1406442550.32'
p893
aS'286.149929459 1406442579.33'
p894
aS'285.950277908 1406442608.33'
p895
aS'285.750765658 1406442637.34'
p896
aS'285.55139261 1406442666.34'
p897
aS'285.352158669 1406442695.35'
p898
aS'285.153063736 1406442724.35'
p899
aS'284.954107715 1406442753.35'
p900
aS'284.755290509 1406442782.36'
p901
aS'284.556612021 1406442811.36'
p902
aS'284.358072155 1406442840.37'
p903
aS'284.159670813 1406442869.37'
p904
aS'283.961407899 1406442898.38'
p905
aS'283.763283316 1406442927.38'
p906
aS'283.565296968 1406442956.39'
p907
aS'283.367448758 1406442985.39'
p908
aS'283.169738591 1406443014.4'
p909
aS'282.972166369 1406443043.4'
p910
aS'282.767926372 1406443073.41'
p911
aS'282.570634501 1406443102.41'
p912
aS'282.373480284 1406443131.42'
p913
aS'282.176463624 1406443160.42'
p914
aS'281.979584427 1406443189.43'
p915
aS'281.782842595 1406443218.43'
p916
aS'281.586238033 1406443247.44'
p917
aS'281.389770646 1406443276.44'
p918
aS'281.193440337 1406443305.45'
p919
aS'280.997247011 1406443334.45'
p920
aS'280.801190572 1406443363.45'
p921
aS'280.605270926 1406443392.46'
p922
aS'280.409487975 1406443421.46'
p923
aS'280.213841626 1406443450.47'
p924
aS'280.018331782 1406443479.47'
p925
aS'279.822958349 1406443508.48'
p926
aS'279.627721231 1406443537.48'
p927
aS'279.432620333 1406443566.49'
p928
aS'279.237655561 1406443595.49'
p929
aS'279.042826818 1406443624.5'
p930
aS'278.848134011 1406443653.5'
p931
aS'278.653577044 1406443682.51'
p932
aS'278.459155823 1406443711.51'
p933
aS'278.264870252 1406443740.52'
p934
aS'278.064027827 1406443770.52'
p935
aS'277.870017944 1406443799.53'
p936
aS'277.676143425 1406443828.53'
p937
aS'277.482404175 1406443857.54'
p938
aS'277.288800101 1406443886.54'
p939
aS'277.095331107 1406443915.54'
p940
aS'276.9019971 1406443944.55'
p941
aS'276.708797985 1406443973.55'
p942
aS'276.515733669 1406444002.56'
p943
aS'276.309503529 1406444033.56'
p944
aS'276.116717806 1406444062.57'
p945
aS'275.924066594 1406444091.57'
p946
aS'275.731549797 1406444120.58'
p947
aS'275.539167323 1406444149.58'
p948
aS'275.346919077 1406444178.59'
p949
aS'275.148182733 1406444208.59'
p950
aS'274.956207283 1406444237.6'
p951
aS'274.764365778 1406444266.6'
p952
aS'274.572658124 1406444295.61'
p953
aS'274.381084228 1406444324.61'
p954
aS'274.189643996 1406444353.62'
p955
aS'273.998337335 1406444382.62'
p956
aS'273.807164151 1406444411.63'
p957
aS'273.616124353 1406444440.63'
p958
aS'273.425217846 1406444469.64'
p959
aS'273.234444537 1406444498.64'
p960
aS'273.043804335 1406444527.65'
p961
aS'272.853297145 1406444556.65'
p962
aS'272.662922875 1406444585.66'
p963
aS'272.472681433 1406444614.66'
p964
aS'272.282572725 1406444643.66'
p965
aS'272.092596659 1406444672.67'
p966
aS'271.902753143 1406444701.67'
p967
aS'271.713042083 1406444730.68'
p968
aS'271.523463388 1406444759.68'
p969
aS'271.334016966 1406444788.69'
p970
aS'271.144702723 1406444817.69'
p971
aS'270.955520568 1406444846.7'
p972
aS'270.766470408 1406444875.7'
p973
aS'270.571040081 1406444905.71'
p974
aS'270.38225818 1406444934.71'
p975
aS'270.193607995 1406444963.72'
p976
aS'270.005089435 1406444992.72'
p977
aS'269.816702407 1406445021.73'
p978
aS'269.628446819 1406445050.73'
p979
aS'269.440322581 1406445079.74'
p980
aS'269.2523296 1406445108.74'
p981
aS'269.064467785 1406445137.74'
p982
aS'268.876737045 1406445166.75'
p983
aS'268.689137287 1406445195.75'
p984
aS'268.50166842 1406445224.76'
p985
aS'268.314330354 1406445253.76'
p986
aS'268.127122997 1406445282.77'
p987
aS'267.940046257 1406445311.77'
p988
aS'267.753100044 1406445340.78'
p989
aS'267.566284266 1406445369.78'
p990
aS'267.379598833 1406445398.79'
p991
aS'267.193043653 1406445427.79'
p992
aS'267.006618636 1406445456.8'
p993
aS'266.820323691 1406445485.8'
p994
aS'266.634158727 1406445514.8'
p995
aS'266.448123653 1406445543.81'
p996
aS'266.262218379 1406445572.81'
p997
aS'266.070039073 1406445602.82'
p998
aS'265.884397595 1406445631.82'
p999
aS'265.698885642 1406445660.83'
p1000
aS'265.513503124 1406445689.83'
p1001
aS'265.32824995 1406445718.84'
p1002
aS'265.14312603 1406445747.84'
p1003
aS'264.958131275 1406445776.85'
p1004
aS'264.773265593 1406445805.85'
p1005
aS'264.588528895 1406445834.86'
p1006
aS'264.403921092 1406445863.86'
p1007
aS'264.219442092 1406445892.87'
p1008
aS'264.035091806 1406445921.87'
p1009
aS'263.850870144 1406445950.87'
p1010
aS'263.666777017 1406445979.88'
p1011
aS'263.482812335 1406446008.88'
p1012
aS'263.298976007 1406446037.89'
p1013
aS'263.115267946 1406446066.89'
p1014
aS'262.931688061 1406446095.9'
p1015
aS'262.748236262 1406446124.9'
p1016
aS'262.564912461 1406446153.91'
p1017
aS'262.381716568 1406446182.91'
p1018
aS'262.198648493 1406446211.92'
p1019
aS'262.015708149 1406446240.92'
p1020
aS'261.832895444 1406446269.93'
p1021
aS'261.643913078 1406446299.93'
p1022
aS'261.461359781 1406446328.94'
p1023
aS'261.278933855 1406446357.94'
p1024
aS'261.09663521 1406446386.95'
p1025
aS'260.914463759 1406446415.95'
p1026
aS'260.732419411 1406446444.96'
p1027
aS'260.550502078 1406446473.96'
p1028
aS'260.368711673 1406446502.97'
p1029
aS'260.187048105 1406446531.97'
p1030
aS'260.005511288 1406446560.97'
p1031
aS'259.824101131 1406446589.98'
p1032
aS'259.642817547 1406446618.98'
p1033
aS'259.461660448 1406446647.99'
p1034
aS'259.280629746 1406446676.99'
p1035
aS'259.099725351 1406446706.0'
p1036
aS'258.918947176 1406446735.0'
p1037
aS'258.738295134 1406446764.01'
p1038
aS'258.557769135 1406446793.01'
p1039
aS'258.377369092 1406446822.02'
p1040
aS'258.197094917 1406446851.02'
p1041
aS'258.016946523 1406446880.03'
p1042
aS'257.836923821 1406446909.03'
p1043
aS'257.657026724 1406446938.04'
p1044
aS'257.477255144 1406446967.04'
p1045
aS'257.291416535 1406446997.05'
p1046
aS'257.111900047 1406447026.05'
p1047
aS'256.932508811 1406447055.06'
p1048
aS'256.75324274 1406447084.06'
p1049
aS'256.574101745 1406447113.07'
p1050
aS'256.395085739 1406447142.07'
p1051
aS'256.216194637 1406447171.08'
p1052
aS'256.037428349 1406447200.08'
p1053
aS'255.85878679 1406447229.09'
p1054
aS'255.680269872 1406447258.09'
p1055
aS'255.501877508 1406447287.1'
p1056
aS'255.323609612 1406447316.1'
p1057
aS'255.145466095 1406447345.11'
p1058
aS'254.967446873 1406447374.11'
p1059
aS'254.789551858 1406447403.12'
p1060
aS'254.611780962 1406447432.12'
p1061
aS'254.434134101 1406447461.13'
p1062
aS'254.256611187 1406447490.13'
p1063
aS'254.079212133 1406447519.14'
p1064
aS'253.901936854 1406447548.14'
p1065
aS'253.724785262 1406447577.15'
p1066
aS'253.547757273 1406447606.15'
p1067
aS'253.370852798 1406447635.16'
p1068
aS'253.194071753 1406447664.16'
p1069
aS'253.017414051 1406447693.17'
p1070
aS'252.834794408 1406447723.17'
p1071
aS'252.65838738 1406447752.18'
p1072
aS'252.482103433 1406447781.18'
p1073
aS'252.305942483 1406447810.19'
p1074
aS'252.129904444 1406447839.19'
p1075
aS'251.953989228 1406447868.2'
p1076
aS'251.778196752 1406447897.2'
p1077
aS'251.60252693 1406447926.2'
p1078
aS'251.426979675 1406447955.21'
p1079
aS'251.251554902 1406447984.21'
p1080
aS'251.076252526 1406448013.22'
p1081
aS'250.901072461 1406448042.22'
p1082
aS'250.726014623 1406448071.23'
p1083
aS'250.551078925 1406448100.23'
p1084
aS'250.376265283 1406448129.24'
p1085
aS'250.201573611 1406448158.24'
p1086
aS'250.027003824 1406448187.25'
p1087
aS'249.852555838 1406448216.25'
p1088
aS'249.678229566 1406448245.26'
p1089
aS'249.504024926 1406448274.26'
p1090
aS'249.32994183 1406448303.27'
p1091
aS'249.155980196 1406448332.27'
p1092
aS'248.982139937 1406448361.28'
p1093
aS'248.808420969 1406448390.28'
p1094
aS'248.634823208 1406448419.28'
p1095
aS'248.455366776 1406448449.29'
p1096
aS'248.282015346 1406448478.29'
p1097
aS'248.108784867 1406448507.3'
p1098
aS'247.935675254 1406448536.3'
p1099
aS'247.762686422 1406448565.31'
p1100
aS'247.589818288 1406448594.31'
p1101
aS'247.417070766 1406448623.32'
p1102
aS'247.244443773 1406448652.32'
p1103
aS'247.071937225 1406448681.33'
p1104
aS'246.899551038 1406448710.33'
p1105
aS'246.727285127 1406448739.34'
p1106
aS'246.555139409 1406448768.34'
p1107
aS'246.3831138 1406448797.35'
p1108
aS'246.211208216 1406448826.35'
p1109
aS'246.039422574 1406448855.36'
p1110
aS'245.867756789 1406448884.36'
p1111
aS'245.696210778 1406448913.37'
p1112
aS'245.524784458 1406448942.37'
p1113
aS'245.353477744 1406448971.38'
p1114
aS'245.182290555 1406449000.38'
p1115
aS'245.011222805 1406449029.38'
p1116
aS'244.840274412 1406449058.39'
p1117
aS'244.669445293 1406449087.39'
p1118
aS'244.498735364 1406449116.4'
p1119
aS'244.322264223 1406449146.4'
p1120
aS'244.151796528 1406449175.41'
p1121
aS'243.981447772 1406449204.41'
p1122
aS'243.81121787 1406449233.42'
p1123
aS'243.64110674 1406449262.42'
p1124
aS'243.4711143 1406449291.43'
p1125
aS'243.301240467 1406449320.43'
p1126
aS'243.131485157 1406449349.44'
p1127
aS'242.961848288 1406449378.44'
p1128
aS'242.792329778 1406449407.45'
p1129
aS'242.622929544 1406449436.45'
p1130
aS'242.453647503 1406449465.46'
p1131
aS'242.284483572 1406449494.46'
p1132
aS'242.115437671 1406449523.47'
p1133
aS'241.946509715 1406449552.47'
p1134
aS'241.777699624 1406449581.47'
p1135
aS'241.609007314 1406449610.48'
p1136
aS'241.440432703 1406449639.48'
p1137
aS'241.27197571 1406449668.49'
p1138
aS'241.103636251 1406449697.49'
p1139
aS'240.935414247 1406449726.5'
p1140
aS'240.767309613 1406449755.5'
p1141
aS'240.599322269 1406449784.51'
p1142
aS'240.431452132 1406449813.51'
p1143
aS'240.263699121 1406449842.52'
p1144
aS'240.09028469 1406449872.52'
p1145
aS'239.922769718 1406449901.53'
p1146
aS'239.755371623 1406449930.53'
p1147
aS'239.588090325 1406449959.54'
p1148
aS'239.420925741 1406449988.54'
p1149
aS'239.253877791 1406450017.55'
p1150
aS'239.086946394 1406450046.55'
p1151
aS'238.920131467 1406450075.55'
p1152
aS'238.753432929 1406450104.56'
p1153
aS'238.5868507 1406450133.56'
p1154
aS'238.420384698 1406450162.57'
p1155
aS'238.254034843 1406450191.57'
p1156
aS'238.087801052 1406450220.58'
p1157
aS'237.921683245 1406450249.58'
p1158
aS'237.755681342 1406450278.59'
p1159
aS'237.589795261 1406450307.59'
p1160
aS'237.424024921 1406450336.6'
p1161
aS'237.258370242 1406450365.6'
p1162
aS'237.092831143 1406450394.61'
p1163
aS'236.927407543 1406450423.61'
p1164
aS'236.762099362 1406450452.61'
p1165
aS'236.59690652 1406450481.62'
p1166
aS'236.431828935 1406450510.62'
p1167
aS'236.266866527 1406450539.63'
p1168
aS'236.096336879 1406450569.63'
p1169
aS'235.93160855 1406450598.64'
p1170
aS'235.766995154 1406450627.64'
p1171
aS'235.602496612 1406450656.65'
p1172
aS'235.438112844 1406450685.65'
p1173
aS'235.273843769 1406450714.66'
p1174
aS'235.109689307 1406450743.66'
p1175
aS'234.945649378 1406450772.67'
p1176
aS'234.781723903 1406450801.67'
p1177
aS'234.617912801 1406450830.68'
p1178
aS'234.454215993 1406450859.68'
p1179
aS'234.290633399 1406450888.68'
p1180
aS'234.127164939 1406450917.69'
p1181
aS'233.963810534 1406450946.69'
p1182
aS'233.800570103 1406450975.7'
p1183
aS'233.637443569 1406451004.7'
p1184
aS'233.47443085 1406451033.71'
p1185
aS'233.311531869 1406451062.71'
p1186
aS'233.148746544 1406451091.72'
p1187
aS'232.986074798 1406451120.72'
p1188
aS'232.82351655 1406451149.73'
p1189
aS'232.661071722 1406451178.73'
p1190
aS'232.498740234 1406451207.74'
p1191
aS'232.336522008 1406451236.74'
p1192
aS'232.174416964 1406451265.75'
p1193
aS'232.006841111 1406451295.75'
p1194
aS'231.844966091 1406451324.76'
p1195
aS'231.683204014 1406451353.76'
p1196
aS'231.521554801 1406451382.76'
p1197
aS'231.360018373 1406451411.77'
p1198
aS'231.198594652 1406451440.77'
p1199
aS'231.037283559 1406451469.78'
p1200
aS'230.876085015 1406451498.78'
p1201
aS'230.714998942 1406451527.79'
p1202
aS'230.554025262 1406451556.79'
p1203
aS'230.393163895 1406451585.8'
p1204
aS'230.232414765 1406451614.8'
p1205
aS'230.071777791 1406451643.81'
p1206
aS'229.911252897 1406451672.81'
p1207
aS'229.750840004 1406451701.82'
p1208
aS'229.590539033 1406451730.82'
p1209
aS'229.430349907 1406451759.82'
p1210
aS'229.270272547 1406451788.83'
p1211
aS'229.110306877 1406451817.83'
p1212
aS'228.950452816 1406451846.84'
p1213
aS'228.790710289 1406451875.84'
p1214
aS'228.631079217 1406451904.85'
p1215
aS'228.471559522 1406451933.85'
p1216
aS'228.312151126 1406451962.86'
p1217
aS'228.14736293 1406451992.86'
p1218
aS'227.988180731 1406452021.87'
p1219
aS'227.829109597 1406452050.87'
p1220
aS'227.67014945 1406452079.88'
p1221
aS'227.511300211 1406452108.88'
p1222
aS'227.352561805 1406452137.89'
p1223
aS'227.193934153 1406452166.89'
p1224
aS'227.035417177 1406452195.89'
p1225
aS'226.877010802 1406452224.9'
p1226
aS'226.71871495 1406452253.9'
p1227
aS'226.560529543 1406452282.91'
p1228
aS'226.402454505 1406452311.91'
p1229
aS'226.244489758 1406452340.92'
p1230
aS'226.086635226 1406452369.92'
p1231
aS'225.928890832 1406452398.93'
p1232
aS'225.771256499 1406452427.93'
p1233
aS'225.613732149 1406452456.94'
p1234
aS'225.456317707 1406452485.94'
p1235
aS'225.299013096 1406452514.95'
p1236
aS'225.141818239 1406452543.95'
p1237
aS'224.984733059 1406452572.96'
p1238
aS'224.82775748 1406452601.96'
p1239
aS'224.670891426 1406452630.96'
p1240
aS'224.51413482 1406452659.97'
p1241
aS'224.357487585 1406452688.97'
p1242
aS'224.195553734 1406452718.98'
p1243
aS'224.039128779 1406452747.98'
p1244
aS'223.882812964 1406452776.99'
p1245
aS'223.726606213 1406452805.99'
p1246
aS'223.57050845 1406452835.0'
p1247
aS'223.414519599 1406452864.0'
p1248
aS'223.258639584 1406452893.01'
p1249
aS'223.102868329 1406452922.01'
p1250
aS'222.947205759 1406452951.02'
p1251
aS'222.791651796 1406452980.02'
p1252
aS'222.636206367 1406453009.03'
p1253
aS'222.480869394 1406453038.03'
p1254
aS'222.325640802 1406453067.04'
p1255
aS'222.170520516 1406453096.04'
p1256
aS'222.01550846 1406453125.05'
p1257
aS'221.860604558 1406453154.05'
p1258
aS'221.705808736 1406453183.06'
p1259
aS'221.551120917 1406453212.06'
p1260
aS'221.396541026 1406453241.06'
p1261
aS'221.242068988 1406453270.07'
p1262
aS'221.087704728 1406453299.07'
p1263
aS'220.933448171 1406453328.08'
p1264
aS'220.779299241 1406453357.08'
p1265
aS'220.625257863 1406453386.09'
p1266
aS'220.471323962 1406453415.09'
p1267
aS'220.312195016 1406453445.1'
p1268
aS'220.158479544 1406453474.1'
p1269
aS'220.004871323 1406453503.11'
p1270
aS'219.851370276 1406453532.11'
p1271
aS'219.697976329 1406453561.12'
p1272
aS'219.544689408 1406453590.12'
p1273
aS'219.391509438 1406453619.13'
p1274
aS'219.238436344 1406453648.13'
p1275
aS'219.085470052 1406453677.14'
p1276
aS'218.932610487 1406453706.14'
p1277
aS'218.779857574 1406453735.14'
p1278
aS'218.62721124 1406453764.15'
p1279
aS'218.474671409 1406453793.15'
p1280
aS'218.322238008 1406453822.16'
p1281
aS'218.169910963 1406453851.16'
p1282
aS'0.0 1406453864.17'
p1283
aS'0.0 1406453864.17'
p1284
aS'0.0 1406453864.17'
p1285
aS'0.0 1406453864.17'
p1286
aS'0.0 1406453864.17'
p1287
aS'0.0 1406453864.17'
p1288
aS'0.0 1406453864.17'
p1289
aS'0.0 1406453864.17'
p1290
aS'0.0 1406453864.17'
p1291
aS'0.0 1406453864.17'
p1292
aS'0.0 1406453864.17'
p1293
aS'0.0 1406453864.17'
p1294
aS'0.0 1406453864.17'
p1295
aS'0.0 1406453864.17'
p1296
aS'0.0 1406453864.17'
p1297
aS'0.0 1406453864.17'
p1298
aS'0.0 1406453864.17'
p1299
aS'0.0 1406453864.17'
p1300
aS'0.0 1406453864.17'
p1301
aS'0.0 1406453864.17'
p1302
aS'0.0 1406453864.17'
p1303
aS'0.0 1406453864.17'
p1304
aS'0.0 1406453864.17'
p1305
aS'0.0 1406453864.17'
p1306
aS'0.0 1406453864.17'
p1307
aS'0.0 1406453864.17'
p1308
aS'0.0 1406453864.17'
p1309
aS'0.0 1406453864.17'
p1310
aS'0.0 1406453864.17'
p1311
aS'0.0 1406453864.17'
p1312
aS'0.0 1406453864.17'
p1313
aS'0.0 1406453864.17'
p1314
aS'0.0 1406453864.17'
p1315
aS'0.0 1406453864.17'
p1316
aS'0.0 1406453864.17'
p1317
aS'0.0 1406453864.17'
p1318
aS'0.0 1406453864.17'
p1319
aS'0.0 1406453864.17'
p1320
aS'0.0 1406453864.17'
p1321
aS'0.0 1406453864.17'
p1322
aS'0.0 1406453864.17'
p1323
aS'0.0 1406453864.17'
p1324
aS'0.0 1406453864.17'
p1325
aS'0.0 1406453864.17'
p1326
aS'0.0 1406453864.17'
p1327
aS'0.0 1406453864.17'
p1328
aS'0.0 1406453864.17'
p1329
aS'0.0 1406453864.17'
p1330
aS'0.0 1406453864.17'
p1331
aS'0.0 1406453864.17'
p1332
aS'0.0 1406453864.17'
p1333
aS'0.0 1406453864.17'
p1334
aS'0.0 1406453864.17'
p1335
aS'0.0 1406453864.17'
p1336
aS'0.0 1406453864.17'
p1337
aS'0.0 1406453864.17'
p1338
aS'0.0 1406453864.17'
p1339
aS'0.0 1406453864.17'
p1340
aS'0.0 1406453864.17'
p1341
aS'0.0 1406453864.17'
p1342
aS'0.0 1406453864.17'
p1343
aS'0.0 1406453864.17'
p1344
aS'0.0 1406453864.17'
p1345
aS'0.0 1406453864.17'
p1346
aS'0.0 1406453864.17'
p1347
aS'0.0 1406453864.17'
p1348
aS'0.0 1406453864.17'
p1349
aS'0.0 1406453864.17'
p1350
aS'0.0 1406453864.17'
p1351
aS'0.0 1406453864.17'
p1352
aS'0.0 1406453864.17'
p1353
aS'0.0 1406453864.17'
p1354
aS'0.0 1406453864.17'
p1355
aS'0.0 1406453864.17'
p1356
aS'0.0 1406453864.17'
p1357
aS'0.0 1406453864.17'
p1358
aS'0.0 1406453864.17'
p1359
aS'0.0 1406453864.17'
p1360
aS'0.0 1406453864.17'
p1361
aS'0.0 1406453864.17'
p1362
aS'0.0 1406453864.17'
p1363
aS'0.0 1406453864.17'
p1364
aS'0.0 1406453864.17'
p1365
aS'0.0 1406453864.17'
p1366
aS'0.0 1406453864.17'
p1367
aS'0.0 1406453864.17'
p1368
aS'0.0 1406453864.17'
p1369
aS'0.0 1406453864.17'
p1370
aS'0.0 1406453864.17'
p1371
aS'0.0 1406453864.17'
p1372
aS'0.0 1406453864.17'
p1373
aS'0.0 1406453864.17'
p1374
aS'0.0 1406453864.17'
p1375
aS'0.0 1406453864.17'
p1376
aS'0.0 1406453864.17'
p1377
aS'0.0 1406453864.17'
p1378
aS'0.0 1406453864.17'
p1379
aS'0.0 1406453864.17'
p1380
aS'0.0 1406453864.17'
p1381
aS'0.0 1406453864.17'
p1382
aS'0.0 1406453864.17'
p1383
aS'0.0 1406453864.17'
p1384
aS'0.0 1406453864.17'
p1385
aS'0.0 1406453864.17'
p1386
aS'0.0 1406453864.17'
p1387
aS'0.0 1406453864.17'
p1388
aS'0.0 1406453864.17'
p1389
aS'0.0 1406453864.17'
p1390
aS'0.0 1406453864.17'
p1391
aS'0.0 1406453864.17'
p1392
aS'0.0 1406453864.17'
p1393
aS'0.0 1406453864.17'
p1394
aS'0.0 1406453864.17'
p1395
aS'0.0 1406453864.17'
p1396
aS'0.0 1406453864.17'
p1397
aS'0.0 1406453864.17'
p1398
aS'0.0 1406453864.17'
p1399
aS'0.0 1406453864.17'
p1400
aS'0.0 1406453864.17'
p1401
aS'0.0 1406453864.17'
p1402
aS'0.0 1406453864.17'
p1403
aS'0.0 1406453864.17'
p1404
aS'0.0 1406453864.17'
p1405
aS'0.0 1406453864.17'
p1406
aS'399.836373867 1406457481.76'
p1407
aS'399.557401399 1406457510.76'
p1408
aS'399.278623574 1406457539.77'
p1409
aS'399.000040258 1406457568.77'
p1410
aS'398.721651314 1406457597.77'
p1411
aS'398.443456606 1406457626.78'
p1412
aS'398.165456 1406457655.78'
p1413
aS'397.878073278 1406457685.79'
p1414
aS'397.600467148 1406457714.79'
p1415
aS'397.32305471 1406457743.8'
p1416
aS'397.045835826 1406457772.8'
p1417
aS'396.768810363 1406457801.81'
p1418
aS'396.491978185 1406457830.81'
p1419
aS'396.215339157 1406457859.82'
p1420
aS'395.938893145 1406457888.82'
p1421
aS'395.662640014 1406457917.83'
p1422
aS'395.38657963 1406457946.83'
p1423
aS'395.110711857 1406457975.83'
p1424
aS'394.835036562 1406458004.84'
p1425
aS'394.55955361 1406458033.84'
p1426
aS'394.284262867 1406458062.85'
p1427
aS'394.009164199 1406458091.85'
p1428
aS'393.734257472 1406458120.86'
p1429
aS'393.459542551 1406458149.86'
p1430
aS'393.185019304 1406458178.87'
p1431
aS'392.910687597 1406458207.87'
p1432
aS'392.636547295 1406458236.88'
p1433
aS'392.362598265 1406458265.88'
p1434
aS'392.088840375 1406458294.89'
p1435
aS'391.815273489 1406458323.89'
p1436
aS'391.541897476 1406458352.9'
p1437
aS'391.25929542 1406458382.9'
p1438
aS'390.986307322 1406458411.91'
p1439
aS'390.713509692 1406458440.91'
p1440
aS'390.440902398 1406458469.92'
p1441
aS'390.168485306 1406458498.92'
p1442
aS'389.896258285 1406458527.92'
p1443
aS'389.6242212 1406458556.93'
p1444
aS'389.35237392 1406458585.93'
p1445
aS'389.080716313 1406458614.94'
p1446
aS'388.809248246 1406458643.94'
p1447
aS'388.537969586 1406458672.95'
p1448
aS'388.266880202 1406458701.95'
p1449
aS'387.995979962 1406458730.96'
p1450
aS'387.725268733 1406458759.96'
p1451
aS'387.454746384 1406458788.97'
p1452
aS'387.184412783 1406458817.97'
p1453
aS'386.914267798 1406458846.98'
p1454
aS'386.644311298 1406458875.98'
p1455
aS'386.37454315 1406458904.99'
p1456
aS'386.104963225 1406458933.99'
p1457
aS'385.83557139 1406458962.99'
p1458
aS'385.566367514 1406458992.0'
p1459
aS'385.297351466 1406459021.0'
p1460
aS'385.019256518 1406459051.01'
p1461
aS'384.750622199 1406459080.01'
p1462
aS'384.48217531 1406459109.02'
p1463
aS'384.213915721 1406459138.02'
p1464
aS'383.945843301 1406459167.03'
p1465
aS'383.67795792 1406459196.03'
p1466
aS'383.410259446 1406459225.04'
p1467
aS'383.142747751 1406459254.04'
p1468
aS'382.875422703 1406459283.05'
p1469
aS'382.608284172 1406459312.05'
p1470
aS'382.341332027 1406459341.06'
p1471
aS'382.07456614 1406459370.06'
p1472
aS'381.80798638 1406459399.07'
p1473
aS'381.541592617 1406459428.07'
p1474
aS'381.275384721 1406459457.08'
p1475
aS'381.009362563 1406459486.08'
p1476
aS'380.743526013 1406459515.09'
p1477
aS'380.477874942 1406459544.09'
p1478
aS'380.21240922 1406459573.09'
p1479
aS'379.947128717 1406459602.1'
p1480
aS'379.682033305 1406459631.1'
p1481
aS'379.417122855 1406459660.11'
p1482
aS'379.152397237 1406459689.11'
p1483
aS'378.887856323 1406459718.12'
p1484
aS'378.614387537 1406459748.12'
p1485
aS'378.350222001 1406459777.13'
p1486
aS'378.086240778 1406459806.13'
p1487
aS'377.822443738 1406459835.14'
p1488
aS'377.558830754 1406459864.14'
p1489
aS'377.295401698 1406459893.15'
p1490
aS'377.03215644 1406459922.15'
p1491
aS'376.769094852 1406459951.16'
p1492
aS'376.506216807 1406459980.16'
p1493
aS'376.243522177 1406460009.17'
p1494
aS'375.981010833 1406460038.17'
p1495
aS'375.718682647 1406460067.18'
p1496
aS'375.456537492 1406460096.18'
p1497
aS'375.19457524 1406460125.18'
p1498
aS'374.932795764 1406460154.19'
p1499
aS'374.671198935 1406460183.19'
p1500
aS'374.409784627 1406460212.2'
p1501
aS'374.148552712 1406460241.2'
p1502
aS'373.887503063 1406460270.21'
p1503
aS'373.626635553 1406460299.21'
p1504
aS'373.365950054 1406460328.22'
p1505
aS'373.105446439 1406460357.22'
p1506
aS'372.845124583 1406460386.23'
p1507
aS'372.584984357 1406460415.23'
p1508
aS'372.316064777 1406460445.24'
p1509
aS'372.056293685 1406460474.24'
p1510
aS'371.79670384 1406460503.25'
p1511
aS'371.537295115 1406460532.25'
p1512
aS'371.278067383 1406460561.26'
p1513
aS'371.019020519 1406460590.26'
p1514
aS'370.760154396 1406460619.26'
p1515
aS'370.501468889 1406460648.27'
p1516
aS'370.242963871 1406460677.27'
p1517
aS'369.984639215 1406460706.28'
p1518
aS'369.726494798 1406460735.28'
p1519
aS'369.468530492 1406460764.29'
p1520
aS'369.210746172 1406460793.29'
p1521
aS'368.953141712 1406460822.3'
p1522
aS'368.695716987 1406460851.3'
p1523
aS'368.438471872 1406460880.31'
p1524
aS'368.181406241 1406460909.31'
p1525
aS'367.924519969 1406460938.32'
p1526
aS'367.66781293 1406460967.32'
p1527
aS'367.411285001 1406460996.33'
p1528
aS'367.154936055 1406461025.33'
p1529
aS'366.898765968 1406461054.34'
p1530
aS'366.642774615 1406461083.34'
p1531
aS'366.378143927 1406461113.35'
p1532
aS'366.122515821 1406461142.35'
p1533
aS'365.867066071 1406461171.36'
p1534
aS'365.611794552 1406461200.36'
p1535
aS'365.356701141 1406461229.36'
p1536
aS'365.101785712 1406461258.37'
p1537
aS'364.847048142 1406461287.37'
p1538
aS'364.592488307 1406461316.38'
p1539
aS'364.338106082 1406461345.38'
p1540
aS'364.083901344 1406461374.39'
p1541
aS'363.829873969 1406461403.39'
p1542
aS'363.576023833 1406461432.4'
p1543
aS'363.322350813 1406461461.4'
p1544
aS'363.068854784 1406461490.41'
p1545
aS'362.815535624 1406461519.41'
p1546
aS'362.562393209 1406461548.42'
p1547
aS'362.309427415 1406461577.42'
p1548
aS'362.05663812 1406461606.42'
p1549
aS'361.8040252 1406461635.43'
p1550
aS'361.551588533 1406461664.43'
p1551
aS'361.299327994 1406461693.44'
p1552
aS'361.047243462 1406461722.44'
p1553
aS'360.795334814 1406461751.45'
p1554
aS'360.543601926 1406461780.45'
p1555
aS'360.292044677 1406461809.46'
p1556
aS'360.031997736 1406461839.46'
p1557
aS'359.780797441 1406461868.47'
p1558
aS'359.529772413 1406461897.47'
p1559
aS'359.27892253 1406461926.48'
p1560
aS'359.028247668 1406461955.48'
p1561
aS'358.777747706 1406461984.49'
p1562
aS'358.527422523 1406462013.49'
p1563
aS'358.277271995 1406462042.49'
p1564
aS'358.027296001 1406462071.5'
p1565
aS'357.77749442 1406462100.5'
p1566
aS'357.52786713 1406462129.51'
p1567
aS'357.278414009 1406462158.51'
p1568
aS'357.029134935 1406462187.52'
p1569
aS'356.780029788 1406462216.52'
p1570
aS'356.531098445 1406462245.53'
p1571
aS'356.282340786 1406462274.53'
p1572
aS'356.033756689 1406462303.54'
p1573
aS'355.785346033 1406462332.54'
p1574
aS'355.537108698 1406462361.55'
p1575
aS'355.289044562 1406462390.55'
p1576
aS'355.041153504 1406462419.56'
p1577
aS'354.793435404 1406462448.56'
p1578
aS'354.545890141 1406462477.57'
p1579
aS'354.298517595 1406462506.57'
p1580
aS'354.042796585 1406462536.57'
p1581
aS'353.795775055 1406462565.58'
p1582
aS'353.548925876 1406462594.58'
p1583
aS'353.302248928 1406462623.59'
p1584
aS'353.055744091 1406462652.59'
p1585
aS'352.809411244 1406462681.6'
p1586
aS'352.563250268 1406462710.6'
p1587
aS'352.317261042 1406462739.61'
p1588
aS'352.071443447 1406462768.61'
p1589
aS'351.825797363 1406462797.62'
p1590
aS'351.58032267 1406462826.62'
p1591
aS'351.33501925 1406462855.63'
p1592
aS'351.089886981 1406462884.63'
p1593
aS'350.844925745 1406462913.64'
p1594
aS'350.600135423 1406462942.64'
p1595
aS'350.355515895 1406462971.65'
p1596
aS'350.111067042 1406463000.65'
p1597
aS'349.866788745 1406463029.66'
p1598
aS'349.622680885 1406463058.66'
p1599
aS'349.378743344 1406463087.66'
p1600
aS'349.134976001 1406463116.67'
p1601
aS'348.891378739 1406463145.67'
p1602
aS'348.647951439 1406463174.68'
p1603
aS'348.396308822 1406463204.68'
p1604
aS'348.15322694 1406463233.69'
p1605
aS'347.910314661 1406463262.69'
p1606
aS'347.667571866 1406463291.7'
p1607
aS'347.424998436 1406463320.7'
p1608
aS'347.182594254 1406463349.71'
p1609
aS'346.940359201 1406463378.71'
p1610
aS'346.698293159 1406463407.72'
p1611
aS'346.456396011 1406463436.72'
p1612
aS'346.214667639 1406463465.73'
p1613
aS'345.973107925 1406463494.73'
p1614
aS'345.73171675 1406463523.74'
p1615
aS'345.490493999 1406463552.75'
p1616
aS'345.249439553 1406463581.76'
p1617
aS'345.008553294 1406463610.76'
p1618
aS'344.767835105 1406463639.77'
p1619
aS'344.52728487 1406463668.77'
p1620
aS'344.286902471 1406463697.77'
p1621
aS'344.04668779 1406463726.78'
p1622
aS'343.806640711 1406463755.78'
p1623
aS'343.566761117 1406463784.79'
p1624
aS'343.327048891 1406463813.79'
p1625
aS'343.087503916 1406463842.8'
p1626
aS'342.848126076 1406463871.8'
p1627
aS'342.608915253 1406463900.81'
p1628
aS'342.361631413 1406463930.81'
p1629
aS'342.122760026 1406463959.82'
p1630
aS'341.884055304 1406463988.82'
p1631
aS'341.645517129 1406464017.83'
p1632
aS'341.407145387 1406464046.83'
p1633
aS'341.168939961 1406464075.84'
p1634
aS'340.930900734 1406464104.84'
p1635
aS'340.693027592 1406464133.84'
p1636
aS'340.455320417 1406464162.85'
p1637
aS'340.217779095 1406464191.85'
p1638
aS'339.980403509 1406464220.86'
p1639
aS'339.743193544 1406464249.87'
p1640
aS'339.506149084 1406464278.87'
p1641
aS'339.269270015 1406464307.88'
p1642
aS'339.032556219 1406464336.88'
p1643
aS'338.796007583 1406464365.89'
p1644
aS'338.559623991 1406464394.89'
p1645
aS'338.323405327 1406464423.9'
p1646
aS'338.087351477 1406464452.9'
p1647
aS'337.851462326 1406464481.91'
p1648
aS'337.615737759 1406464510.91'
p1649
aS'337.380177661 1406464539.92'
p1650
aS'337.144781916 1406464568.92'
p1651
aS'336.909550412 1406464597.92'
p1652
aS'336.666380186 1406464627.93'
p1653
aS'336.43148247 1406464656.93'
p1654
aS'336.196748646 1406464685.94'
p1655
aS'335.9621786 1406464714.94'
p1656
aS'335.727772217 1406464743.95'
p1657
aS'335.493529384 1406464772.95'
p1658
aS'335.259449985 1406464801.96'
p1659
aS'335.025533908 1406464830.96'
p1660
aS'334.791781038 1406464859.97'
p1661
aS'334.558191261 1406464888.97'
p1662
aS'334.324764463 1406464917.98'
p1663
aS'334.091500531 1406464946.98'
p1664
aS'333.858399352 1406464975.99'
p1665
aS'333.62546081 1406465004.99'
p1666
aS'333.392684794 1406465033.99'
p1667
aS'333.16007119 1406465063.0'
p1668
aS'332.927619884 1406465092.0'
p1669
aS'332.695330763 1406465121.01'
p1670
aS'332.463203714 1406465150.01'
p1671
aS'332.231238624 1406465179.02'
p1672
aS'331.99943538 1406465208.02'
p1673
aS'331.767793869 1406465237.03'
p1674
aS'331.536313978 1406465266.03'
p1675
aS'331.304995595 1406465295.04'
p1676
aS'331.065870552 1406465325.04'
p1677
aS'330.834880405 1406465354.05'
p1678
aS'330.604051423 1406465383.05'
p1679
aS'330.373383494 1406465412.06'
p1680
aS'330.142876506 1406465441.06'
p1681
aS'329.912530347 1406465470.07'
p1682
aS'329.682344904 1406465499.07'
p1683
aS'329.452320066 1406465528.08'
p1684
aS'329.222455719 1406465557.08'
p1685
aS'328.992751753 1406465586.09'
p1686
aS'328.763208055 1406465615.09'
p1687
aS'328.533824513 1406465644.09'
p1688
aS'328.304601016 1406465673.1'
p1689
aS'328.075537452 1406465702.1'
p1690
aS'327.84663371 1406465731.11'
p1691
aS'327.617889677 1406465760.11'
p1692
aS'327.389305243 1406465789.12'
p1693
aS'327.160880296 1406465818.12'
p1694
aS'326.932614725 1406465847.13'
p1695
aS'326.704508419 1406465876.13'
p1696
aS'326.476561266 1406465905.14'
p1697
aS'326.248773156 1406465934.14'
p1698
aS'326.021143977 1406465963.15'
p1699
aS'325.785832645 1406465993.15'
p1700
aS'325.558526467 1406466022.16'
p1701
aS'325.331378885 1406466051.16'
p1702
aS'325.104389788 1406466080.17'
p1703
aS'324.877559064 1406466109.17'
p1704
aS'324.650886604 1406466138.18'
p1705
aS'324.424372297 1406466167.18'
p1706
aS'324.198016033 1406466196.19'
p1707
aS'323.971817702 1406466225.19'
p1708
aS'323.745777193 1406466254.2'
p1709
aS'323.519894396 1406466283.2'
p1710
aS'323.294169201 1406466312.21'
p1711
aS'323.068601498 1406466341.21'
p1712
aS'322.843191178 1406466370.21'
p1713
aS'322.61793813 1406466399.22'
p1714
aS'322.392842246 1406466428.22'
p1715
aS'322.167903414 1406466457.23'
p1716
aS'321.943121525 1406466486.23'
p1717
aS'321.718496471 1406466515.24'
p1718
aS'321.494028142 1406466544.24'
p1719
aS'321.269716427 1406466573.25'
p1720
aS'321.045561219 1406466602.25'
p1721
aS'320.821562408 1406466631.26'
p1722
aS'320.597719884 1406466660.26'
p1723
aS'320.374033539 1406466689.27'
p1724
aS'320.142798105 1406466719.27'
p1725
aS'319.919429166 1406466748.28'
p1726
aS'319.696216076 1406466777.28'
p1727
aS'319.473158725 1406466806.29'
p1728
aS'319.250257004 1406466835.29'
p1729
aS'319.027510806 1406466864.3'
p1730
aS'318.804920022 1406466893.3'
p1731
aS'318.582484543 1406466922.31'
p1732
aS'318.360204261 1406466951.31'
p1733
aS'318.138079068 1406466980.32'
p1734
aS'317.916108855 1406467009.32'
p1735
aS'317.694293514 1406467038.32'
p1736
aS'317.472632938 1406467067.33'
p1737
aS'317.251127017 1406467096.33'
p1738
aS'317.029775646 1406467125.34'
p1739
aS'316.808578714 1406467154.34'
p1740
aS'316.587536116 1406467183.35'
p1741
aS'316.366647742 1406467212.35'
p1742
aS'316.145913486 1406467241.36'
p1743
aS'315.92533324 1406467270.36'
p1744
aS'315.704906897 1406467299.37'
p1745
aS'315.484634348 1406467328.37'
p1746
aS'315.264515488 1406467357.38'
p1747
aS'315.044550208 1406467386.38'
p1748
aS'314.824738401 1406467415.39'
p1749
aS'314.597508266 1406467445.39'
p1750
aS'314.378008368 1406467474.4'
p1751
aS'314.158661619 1406467503.4'
p1752
aS'313.939467911 1406467532.4'
p1753
aS'313.720427139 1406467561.41'
p1754
aS'313.501539195 1406467590.41'
p1755
aS'313.282803973 1406467619.42'
p1756
aS'313.064221366 1406467648.42'
p1757
aS'312.845791267 1406467677.43'
p1758
aS'312.627513571 1406467706.43'
p1759
aS'312.409388171 1406467735.44'
p1760
aS'312.191414961 1406467764.44'
p1761
aS'311.973593834 1406467793.45'
p1762
aS'311.755924684 1406467822.45'
p1763
aS'311.538407406 1406467851.46'
p1764
aS'311.321041894 1406467880.46'
p1765
aS'311.103828041 1406467909.47'
p1766
aS'310.886765741 1406467938.47'
p1767
aS'310.66985489 1406467967.48'
p1768
aS'310.453095381 1406467996.48'
p1769
aS'310.236487108 1406468025.48'
p1770
aS'310.020029967 1406468054.49'
p1771
aS'309.803723851 1406468083.49'
p1772
aS'309.587568656 1406468112.5'
p1773
aS'309.371564276 1406468141.5'
p1774
aS'309.148270063 1406468171.51'
p1775
aS'308.932572189 1406468200.51'
p1776
aS'308.71702481 1406468229.52'
p1777
aS'308.501627823 1406468258.52'
p1778
aS'308.286381122 1406468287.53'
p1779
aS'308.071284602 1406468316.53'
p1780
aS'307.856338158 1406468345.54'
p1781
aS'307.641541687 1406468374.54'
p1782
aS'307.426895082 1406468403.55'
p1783
aS'307.212398239 1406468432.55'
p1784
aS'306.998051055 1406468461.56'
p1785
aS'306.783853424 1406468490.56'
p1786
aS'306.569805243 1406468519.57'
p1787
aS'306.355906406 1406468548.57'
p1788
aS'306.142156811 1406468577.58'
p1789
aS'305.928556352 1406468606.58'
p1790
aS'305.715104925 1406468635.58'
p1791
aS'305.501802427 1406468664.59'
p1792
aS'305.288648754 1406468693.59'
p1793
aS'305.075643801 1406468722.6'
p1794
aS'304.862787466 1406468751.6'
p1795
aS'304.650079644 1406468780.61'
p1796
aS'304.437520232 1406468809.61'
p1797
aS'304.225109126 1406468838.62'
p1798
aS'304.012846223 1406468867.62'
p1799
aS'303.793419756 1406468897.63'
p1800
aS'303.581458049 1406468926.63'
p1801
aS'303.369644232 1406468955.64'
p1802
aS'303.157978201 1406468984.64'
p1803
aS'302.946459853 1406469013.65'
p1804
aS'302.735089085 1406469042.65'
p1805
aS'302.523865793 1406469071.66'
p1806
aS'302.312789876 1406469100.66'
p1807
aS'302.101861229 1406469129.67'
p1808
aS'301.891079751 1406469158.67'
p1809
aS'301.680445339 1406469187.68'
p1810
aS'301.46995789 1406469216.68'
p1811
aS'301.259617302 1406469245.69'
p1812
aS'301.049423471 1406469274.69'
p1813
aS'300.839376297 1406469303.69'
p1814
aS'300.629475676 1406469332.7'
p1815
aS'300.419721506 1406469361.71'
p1816
aS'300.210113684 1406469390.71'
p1817
aS'300.00065211 1406469419.71'
p1818
aS'299.791336681 1406469448.72'
p1819
aS'299.582167294 1406469477.72'
p1820
aS'299.373143848 1406469506.73'
p1821
aS'299.164266242 1406469535.73'
p1822
aS'298.955534373 1406469564.74'
p1823
aS'298.739758107 1406469594.74'
p1824
aS'298.531322424 1406469623.75'
p1825
aS'298.32303217 1406469652.75'
p1826
aS'298.114887244 1406469681.76'
p1827
aS'297.906887544 1406469710.76'
p1828
aS'297.699032969 1406469739.77'
p1829
aS'297.491323417 1406469768.77'
p1830
aS'297.283758788 1406469797.77'
p1831
aS'297.07633898 1406469826.78'
p1832
aS'296.869063892 1406469855.78'
p1833
aS'296.661933424 1406469884.79'
p1834
aS'296.454947474 1406469913.79'
p1835
aS'296.248105941 1406469942.8'
p1836
aS'296.041408726 1406469971.8'
p1837
aS'295.834855726 1406470000.81'
p1838
aS'295.628446842 1406470029.81'
p1839
aS'295.422181972 1406470058.82'
p1840
aS'295.216061017 1406470087.82'
p1841
aS'295.010083876 1406470116.83'
p1842
aS'294.804250449 1406470145.83'
p1843
aS'294.598560635 1406470174.83'
p1844
aS'294.393014335 1406470203.84'
p1845
aS'294.187611447 1406470232.84'
p1846
aS'293.982351873 1406470261.85'
p1847
aS'293.777235511 1406470290.85'
p1848
aS'293.565196771 1406470320.86'
p1849
aS'293.360371465 1406470349.86'
p1850
aS'293.15568907 1406470378.87'
p1851
aS'292.951149484 1406470407.87'
p1852
aS'292.74675261 1406470436.88'
p1853
aS'292.542498346 1406470465.88'
p1854
aS'292.338386594 1406470494.89'
p1855
aS'292.134417255 1406470523.89'
p1856
aS'291.930590228 1406470552.9'
p1857
aS'291.726905414 1406470581.9'
p1858
aS'291.523362715 1406470610.91'
p1859
aS'291.319962031 1406470639.91'
p1860
aS'291.116703263 1406470668.91'
p1861
aS'290.913586312 1406470697.92'
p1862
aS'290.710611079 1406470726.92'
p1863
aS'290.507777465 1406470755.93'
p1864
aS'290.305085372 1406470784.93'
p1865
aS'290.1025347 1406470813.94'
p1866
aS'289.900125351 1406470842.94'
p1867
aS'289.697857227 1406470871.95'
p1868
aS'289.495730228 1406470900.95'
p1869
aS'289.293744257 1406470929.96'
p1870
aS'289.091899215 1406470958.96'
p1871
aS'288.890195003 1406470987.97'
p1872
aS'288.688631524 1406471016.97'
p1873
aS'288.48026557 1406471046.97'
p1874
aS'288.278988105 1406471075.98'
p1875
aS'288.077851075 1406471104.98'
p1876
aS'287.876854382 1406471133.99'
p1877
aS'287.675997927 1406471162.99'
p1878
aS'287.475281613 1406471192.0'
p1879
aS'287.274705343 1406471221.0'
p1880
aS'287.074269017 1406471250.01'
p1881
aS'286.87397254 1406471279.01'
p1882
aS'286.673815812 1406471308.02'
p1883
aS'286.473798737 1406471337.02'
p1884
aS'286.273921218 1406471366.03'
p1885
aS'286.074183156 1406471395.03'
p1886
aS'285.874584455 1406471424.04'
p1887
aS'285.675125017 1406471453.05'
p1888
aS'285.475804745 1406471482.05'
p1889
aS'285.276623543 1406471511.06'
p1890
aS'285.077581312 1406471540.06'
p1891
aS'284.878677957 1406471569.07'
p1892
aS'284.679913379 1406471598.07'
p1893
aS'284.481287483 1406471627.08'
p1894
aS'284.282800172 1406471656.08'
p1895
aS'284.084451348 1406471685.09'
p1896
aS'283.886240916 1406471714.09'
p1897
aS'283.68134117 1406471744.09'
p1898
aS'283.483411995 1406471773.1'
p1899
aS'283.285620918 1406471802.1'
p1900
aS'283.087967843 1406471831.11'
p1901
aS'282.890452673 1406471860.11'
p1902
aS'282.693075314 1406471889.12'
p1903
aS'282.495835668 1406471918.12'
p1904
aS'282.298733639 1406471947.13'
p1905
aS'282.101769131 1406471976.13'
p1906
aS'281.904942049 1406472005.14'
p1907
aS'281.708252297 1406472034.14'
p1908
aS'281.511699778 1406472063.15'
p1909
aS'281.315284397 1406472092.15'
p1910
aS'281.119006059 1406472121.16'
p1911
aS'280.922864667 1406472150.16'
p1912
aS'280.726860126 1406472179.17'
p1913
aS'280.530992341 1406472208.17'
p1914
aS'280.335261216 1406472237.17'
p1915
aS'280.139666656 1406472266.18'
p1916
aS'279.944208565 1406472295.18'
p1917
aS'279.748886849 1406472324.19'
p1918
aS'279.553701412 1406472353.19'
p1919
aS'279.358652159 1406472382.2'
p1920
aS'279.163738995 1406472411.2'
p1921
aS'278.962247796 1406472441.21'
p1922
aS'278.76761121 1406472470.21'
p1923
aS'278.573110425 1406472499.22'
p1924
aS'278.378745347 1406472528.22'
p1925
aS'278.18451588 1406472557.23'
p1926
aS'277.990421931 1406472586.23'
p1927
aS'277.796463404 1406472615.24'
p1928
aS'277.602640205 1406472644.24'
p1929
aS'277.40895224 1406472673.25'
p1930
aS'277.215399414 1406472702.25'
p1931
aS'277.021981633 1406472731.26'
p1932
aS'276.828698803 1406472760.26'
p1933
aS'276.63555083 1406472789.27'
p1934
aS'276.442537619 1406472818.27'
p1935
aS'276.249659077 1406472847.27'
p1936
aS'276.056915109 1406472876.28'
p1937
aS'275.864305622 1406472905.28'
p1938
aS'275.671830521 1406472934.29'
p1939
aS'275.479489714 1406472963.29'
p1940
aS'275.287283106 1406472992.3'
p1941
aS'275.095210604 1406473021.3'
p1942
aS'274.903272114 1406473050.31'
p1943
aS'274.711467543 1406473079.31'
p1944
aS'274.519796797 1406473108.32'
p1945
aS'274.321657442 1406473138.32'
p1946
aS'274.130258673 1406473167.33'
p1947
aS'273.938993446 1406473196.33'
p1948
aS'273.747861668 1406473225.34'
p1949
aS'273.556863246 1406473254.34'
p1950
aS'273.365998086 1406473283.34'
p1951
aS'273.175266097 1406473312.35'
p1952
aS'272.984667184 1406473341.35'
p1953
aS'272.794201255 1406473370.36'
p1954
aS'272.603868217 1406473399.36'
p1955
aS'272.413667978 1406473428.37'
p1956
aS'272.223600445 1406473457.37'
p1957
aS'272.033665525 1406473486.38'
p1958
aS'271.843863126 1406473515.38'
p1959
aS'271.654193155 1406473544.39'
p1960
aS'271.46465552 1406473573.39'
p1961
aS'271.275250129 1406473602.4'
p1962
aS'271.085976889 1406473631.4'
p1963
aS'270.896835707 1406473660.4'
p1964
aS'270.707826493 1406473689.41'
p1965
aS'270.518949154 1406473718.41'
p1966
aS'270.330203598 1406473747.42'
p1967
aS'270.141589732 1406473776.42'
p1968
aS'269.953107466 1406473805.43'
p1969
aS'269.758264197 1406473835.43'
p1970
aS'269.570049383 1406473864.44'
p1971
aS'269.38196589 1406473893.44'
p1972
aS'269.194013625 1406473922.45'
p1973
aS'269.006192498 1406473951.45'
p1974
aS'268.818502417 1406473980.46'
p1975
aS'268.630943291 1406474009.46'
p1976
aS'268.443515027 1406474038.47'
p1977
aS'268.256217536 1406474067.47'
p1978
aS'268.069050724 1406474096.48'
p1979
aS'267.882014503 1406474125.48'
p1980
aS'267.695108779 1406474154.49'
p1981
aS'267.508333463 1406474183.49'
p1982
aS'267.321688463 1406474212.49'
p1983
aS'267.135173689 1406474241.5'
p1984
aS'266.948789048 1406474270.5'
p1985
aS'266.762534452 1406474299.51'
p1986
aS'266.576409808 1406474328.51'
p1987
aS'266.390415027 1406474357.52'
p1988
aS'266.204550017 1406474386.52'
p1989
aS'266.018814688 1406474415.53'
p1990
aS'265.83320895 1406474444.53'
p1991
aS'265.647732713 1406474473.54'
p1992
aS'265.462385885 1406474502.54'
p1993
aS'265.277168376 1406474531.55'
p1994
aS'265.085700047 1406474561.55'
p1995
aS'264.900745358 1406474590.56'
p1996
aS'264.715919716 1406474619.56'
p1997
aS'264.531223029 1406474648.57'
p1998
aS'264.346655208 1406474677.57'
p1999
aS'264.162216164 1406474706.57'
p2000
aS'263.977905805 1406474735.58'
p2001
aS'263.793724043 1406474764.58'
p2002
aS'263.609670788 1406474793.59'
p2003
aS'263.42574595 1406474822.59'
p2004
aS'263.241949439 1406474851.6'
p2005
aS'263.058281165 1406474880.6'
p2006
aS'262.874741041 1406474909.61'
p2007
aS'262.691328975 1406474938.61'
p2008
aS'262.508044879 1406474967.62'
p2009
aS'262.324888663 1406474996.62'
p2010
aS'262.141860239 1406475025.63'
p2011
aS'261.958959516 1406475054.63'
p2012
aS'261.776186406 1406475083.63'
p2013
aS'261.593540821 1406475112.64'
p2014
aS'261.411022669 1406475141.64'
p2015
aS'261.228631864 1406475170.65'
p2016
aS'261.046368316 1406475199.65'
p2017
aS'260.857953639 1406475229.66'
p2018
aS'260.675948719 1406475258.66'
p2019
aS'260.494070787 1406475287.67'
p2020
aS'260.312319755 1406475316.67'
p2021
aS'260.130695533 1406475345.68'
p2022
aS'259.949198033 1406475374.68'
p2023
aS'259.767827167 1406475403.69'
p2024
aS'259.586582847 1406475432.69'
p2025
aS'259.405464984 1406475461.7'
p2026
aS'259.22447349 1406475490.7'
p2027
aS'259.043608276 1406475519.7'
p2028
aS'258.862869255 1406475548.71'
p2029
aS'258.682256339 1406475577.71'
p2030
aS'258.501769439 1406475606.72'
p2031
aS'258.321408469 1406475635.72'
p2032
aS'258.141173338 1406475664.73'
p2033
aS'257.961063961 1406475693.73'
p2034
aS'257.78108025 1406475722.74'
p2035
aS'257.601222116 1406475751.74'
p2036
aS'257.421489472 1406475780.75'
p2037
aS'257.24188223 1406475809.75'
p2038
aS'257.062400303 1406475838.76'
p2039
aS'256.883043604 1406475867.76'
p2040
aS'256.703812045 1406475896.77'
p2041
aS'256.524705539 1406475925.77'
p2042
aS'256.339554449 1406475955.78'
p2043
aS'256.160702091 1406475984.78'
p2044
aS'255.981974522 1406476013.78'
p2045
aS'255.803371653 1406476042.79'
p2046
aS'255.624893399 1406476071.79'
p2047
aS'255.446539673 1406476100.8'
p2048
aS'255.268310386 1406476129.8'
p2049
aS'255.090205453 1406476158.81'
p2050
aS'254.912224787 1406476187.81'
p2051
aS'254.734368301 1406476216.82'
p2052
aS'254.556635908 1406476245.82'
p2053
aS'254.379027523 1406476274.83'
p2054
aS'254.201543057 1406476303.83'
p2055
aS'254.024182425 1406476332.84'
p2056
aS'253.846945541 1406476361.84'
p2057
aS'253.669832318 1406476390.84'
p2058
aS'253.49284267 1406476419.85'
p2059
aS'253.31597651 1406476448.85'
p2060
aS'253.139233753 1406476477.86'
p2061
aS'252.962614312 1406476506.86'
p2062
aS'252.786118102 1406476535.87'
p2063
aS'252.609745036 1406476564.87'
p2064
aS'252.433495028 1406476593.88'
p2065
aS'252.251296839 1406476623.88'
p2066
aS'252.075296926 1406476652.89'
p2067
aS'251.899419812 1406476681.89'
p2068
aS'251.72366541 1406476710.9'
p2069
aS'251.548033634 1406476739.9'
p2070
aS'251.3725244 1406476768.91'
p2071
aS'251.197137622 1406476797.91'
p2072
aS'251.021873214 1406476826.92'
p2073
aS'250.84673109 1406476855.92'
p2074
aS'250.671711167 1406476884.93'
p2075
aS'250.496813357 1406476913.93'
p2076
aS'250.322037577 1406476942.94'
p2077
aS'250.147383741 1406476971.94'
p2078
aS'249.972851763 1406477000.95'
p2079
aS'249.79844156 1406477029.95'
p2080
aS'249.624153045 1406477058.95'
p2081
aS'249.449986134 1406477087.96'
p2082
aS'249.275940743 1406477116.96'
p2083
aS'249.102016785 1406477145.97'
p2084
aS'248.928214178 1406477174.97'
p2085
aS'248.754532835 1406477203.98'
p2086
aS'248.580972673 1406477232.98'
p2087
aS'248.407533606 1406477261.99'
p2088
aS'248.234215551 1406477290.99'
p2089
aS'248.061018423 1406477320.0'
p2090
aS'247.881976144 1406477350.0'
p2091
aS'247.709024779 1406477379.01'
p2092
aS'247.536194085 1406477408.01'
p2093
aS'247.363483977 1406477437.02'
p2094
aS'247.190894373 1406477466.02'
p2095
aS'247.018425187 1406477495.02'
p2096
aS'246.846076336 1406477524.03'
p2097
aS'246.673847735 1406477553.03'
p2098
aS'246.501739302 1406477582.04'
p2099
aS'246.329750951 1406477611.04'
p2100
aS'246.157882599 1406477640.05'
p2101
aS'245.986134163 1406477669.05'
p2102
aS'245.814505558 1406477698.06'
p2103
aS'245.642996701 1406477727.06'
p2104
aS'245.471607509 1406477756.07'
p2105
aS'245.300337899 1406477785.07'
p2106
aS'245.129187785 1406477814.08'
p2107
aS'244.958157086 1406477843.08'
p2108
aS'244.787245718 1406477872.09'
p2109
aS'244.616453598 1406477901.09'
p2110
aS'244.445780642 1406477930.1'
p2111
aS'244.275226768 1406477959.1'
p2112
aS'244.104791892 1406477988.11'
p2113
aS'243.928605087 1406478018.11'
p2114
aS'243.758412054 1406478047.12'
p2115
aS'243.588337768 1406478076.12'
p2116
aS'243.418382146 1406478105.13'
p2117
aS'243.248545104 1406478134.13'
p2118
aS'243.078826561 1406478163.13'
p2119
aS'242.909226433 1406478192.14'
p2120
aS'242.739744638 1406478221.14'
p2121
aS'242.570381093 1406478250.15'
p2122
aS'242.401135716 1406478279.15'
p2123
aS'242.232008424 1406478308.16'
p2124
aS'242.062999135 1406478337.16'
p2125
aS'241.894107767 1406478366.17'
p2126
aS'241.725334237 1406478395.17'
p2127
aS'241.556678463 1406478424.18'
p2128
aS'241.388140363 1406478453.18'
p2129
aS'241.219719855 1406478482.19'
p2130
aS'241.051416857 1406478511.19'
p2131
aS'240.883231286 1406478540.2'
p2132
aS'240.715163062 1406478569.2'
p2133
aS'240.547212101 1406478598.2'
p2134
aS'240.379378322 1406478627.21'
p2135
aS'240.211661644 1406478656.21'
p2136
aS'240.038284772 1406478686.22'
p2137
aS'239.870806081 1406478715.22'
p2138
aS'239.703444242 1406478744.23'
p2139
aS'239.536199174 1406478773.23'
p2140
aS'239.369070796 1406478802.24'
p2141
aS'239.202059027 1406478831.24'
p2142
aS'239.035163784 1406478860.25'
p2143
aS'238.868384986 1406478889.25'
p2144
aS'238.701722553 1406478918.26'
p2145
aS'238.535176403 1406478947.26'
p2146
aS'238.368746456 1406478976.27'
p2147
aS'238.202432629 1406479005.27'
p2148
aS'238.036234842 1406479034.28'
p2149
aS'237.870153014 1406479063.28'
p2150
aS'237.704187064 1406479092.29'
p2151
aS'237.538336911 1406479121.29'
p2152
aS'237.372602474 1406479150.29'
p2153
aS'237.206983674 1406479179.3'
p2154
aS'237.041480428 1406479208.3'
p2155
aS'236.876092656 1406479237.31'
p2156
aS'236.710820279 1406479266.31'
p2157
aS'236.545663214 1406479295.32'
p2158
aS'236.380621383 1406479324.32'
p2159
aS'236.215694704 1406479353.33'
p2160
aS'236.050883097 1406479382.33'
p2161
aS'235.880509338 1406479412.34'
p2162
aS'235.715931595 1406479441.34'
p2163
aS'235.551468681 1406479470.35'
p2164
aS'235.387120516 1406479499.35'
p2165
aS'235.222887019 1406479528.36'
p2166
aS'235.05876811 1406479557.36'
p2167
aS'234.89476371 1406479586.36'
p2168
aS'234.730873738 1406479615.37'
p2169
aS'234.567098116 1406479644.37'
p2170
aS'234.403436762 1406479673.38'
p2171
aS'234.239889597 1406479702.38'
p2172
aS'234.076456542 1406479731.39'
p2173
aS'233.913137517 1406479760.39'
p2174
aS'233.749932442 1406479789.4'
p2175
aS'233.586841239 1406479818.4'
p2176
aS'233.423863826 1406479847.41'
p2177
aS'233.261000126 1406479876.41'
p2178
aS'233.098250058 1406479905.42'
p2179
aS'232.935613544 1406479934.42'
p2180
aS'232.773090504 1406479963.43'
p2181
aS'232.610680859 1406479992.43'
p2182
aS'232.44838453 1406480021.43'
p2183
aS'232.286201438 1406480050.44'
p2184
aS'232.124131503 1406480079.44'
p2185
aS'231.956591945 1406480109.45'
p2186
aS'231.794751984 1406480138.45'
p2187
aS'231.633024942 1406480167.46'
p2188
aS'231.47141074 1406480196.46'
p2189
aS'231.309909298 1406480225.47'
p2190
aS'231.148520539 1406480254.47'
p2191
aS'230.987244384 1406480283.48'
p2192
aS'230.826080753 1406480312.48'
p2193
aS'230.665029569 1406480341.49'
p2194
aS'230.504090753 1406480370.49'
p2195
aS'230.343264227 1406480399.49'
p2196
aS'230.182549912 1406480428.5'
p2197
aS'230.02194773 1406480457.5'
p2198
aS'229.861457603 1406480486.51'
p2199
aS'229.701079453 1406480515.51'
p2200
aS'229.540813201 1406480544.52'
p2201
aS'229.380658769 1406480573.52'
p2202
aS'229.22061608 1406480602.53'
p2203
aS'229.060685055 1406480631.53'
p2204
aS'228.900865617 1406480660.54'
p2205
aS'228.741157688 1406480689.54'
p2206
aS'228.581561189 1406480718.55'
p2207
aS'228.422076044 1406480747.55'
p2208
aS'228.257208507 1406480777.55'
p2209
aS'228.097949668 1406480806.56'
p2210
aS'227.938801946 1406480835.56'
p2211
aS'227.779765264 1406480864.57'
p2212
aS'227.620839545 1406480893.57'
p2213
aS'227.462024711 1406480922.58'
p2214
aS'227.303320685 1406480951.58'
p2215
aS'227.144727389 1406480980.59'
p2216
aS'226.986244746 1406481009.59'
p2217
aS'226.827872679 1406481038.6'
p2218
aS'226.669611111 1406481067.6'
p2219
aS'226.511459965 1406481096.61'
p2220
aS'226.353419164 1406481125.61'
p2221
aS'226.19548863 1406481154.62'
p2222
aS'226.037668287 1406481183.62'
p2223
aS'225.879958057 1406481212.63'
p2224
aS'225.722357865 1406481241.63'
p2225
aS'225.564867633 1406481270.64'
p2226
aS'225.407487285 1406481299.64'
p2227
aS'225.250216744 1406481328.65'
p2228
aS'225.093055932 1406481357.65'
p2229
aS'224.936004775 1406481386.66'
p2230
aS'224.779063194 1406481415.66'
p2231
aS'224.622231115 1406481444.66'
p2232
aS'224.46550846 1406481473.67'
p2233
aS'224.303496643 1406481503.67'
p2234
aS'224.146996374 1406481532.68'
p2235
aS'223.990605298 1406481561.68'
p2236
aS'223.834323339 1406481590.69'
p2237
aS'223.67815042 1406481619.69'
p2238
aS'223.522086465 1406481648.7'
p2239
aS'223.366131399 1406481677.7'
p2240
aS'223.210285145 1406481706.71'
p2241
aS'223.054547628 1406481735.71'
p2242
aS'222.898918772 1406481764.72'
p2243
aS'222.7433985 1406481793.72'
p2244
aS'222.587986738 1406481822.73'
p2245
aS'222.432683408 1406481851.73'
p2246
aS'222.277488437 1406481880.74'
p2247
aS'222.122401748 1406481909.74'
p2248
aS'221.967423265 1406481938.74'
p2249
aS'221.812552913 1406481967.75'
p2250
aS'221.657790617 1406481996.75'
p2251
aS'221.503136301 1406482025.76'
p2252
aS'221.34858989 1406482054.76'
p2253
aS'221.194151308 1406482083.77'
p2254
aS'221.039820481 1406482112.77'
p2255
aS'220.885597333 1406482141.78'
p2256
aS'220.731481789 1406482170.78'
p2257
aS'220.57216507 1406482200.79'
p2258
aS'220.418268213 1406482229.79'
p2259
aS'220.264478733 1406482258.8'
p2260
aS'220.110796554 1406482287.8'
p2261
aS'219.957221601 1406482316.81'
p2262
aS'219.8037538 1406482345.81'
p2263
aS'219.650393077 1406482374.82'
p2264
aS'219.497139355 1406482403.82'
p2265
aS'219.343992561 1406482432.82'
p2266
aS'219.190952621 1406482461.83'
p2267
aS'219.038019459 1406482490.83'
p2268
aS'218.885193 1406482519.84'
p2269
aS'218.732473172 1406482548.84'
p2270
aS'218.579859898 1406482577.85'
p2271
aS'218.427353106 1406482606.85'
p2272
aS'218.27495272 1406482635.86'
p2273
aS'218.122658666 1406482664.86'
p2274
aS'0.0 1406482668.86'
p2275
aS'0.0 1406482668.86'
p2276
aS'0.0 1406482668.86'
p2277
aS'0.0 1406482668.86'
p2278
aS'0.0 1406482668.86'
p2279
aS'0.0 1406482668.86'
p2280
aS'0.0 1406482668.86'
p2281
aS'0.0 1406482668.86'
p2282
aS'0.0 1406482668.86'
p2283
aS'0.0 1406482668.86'
p2284
aS'0.0 1406482668.86'
p2285
aS'0.0 1406482668.86'
p2286
aS'0.0 1406482668.86'
p2287
aS'0.0 1406482668.86'
p2288
aS'0.0 1406482668.86'
p2289
aS'0.0 1406482668.86'
p2290
aS'0.0 1406482668.86'
p2291
aS'0.0 1406482668.86'
p2292
aS'0.0 1406482668.86'
p2293
aS'0.0 1406482668.86'
p2294
aS'0.0 1406482668.86'
p2295
aS'0.0 1406482668.86'
p2296
aS'0.0 1406482668.86'
p2297
aS'0.0 1406482668.86'
p2298
aS'0.0 1406482668.86'
p2299
aS'0.0 1406482668.86'
p2300
aS'0.0 1406482668.86'
p2301
aS'0.0 1406482668.86'
p2302
aS'0.0 1406482668.86'
p2303
aS'0.0 1406482668.86'
p2304
aS'0.0 1406482668.86'
p2305
aS'0.0 1406482668.86'
p2306
aS'0.0 1406482668.86'
p2307
aS'0.0 1406482668.86'
p2308
aS'0.0 1406482668.86'
p2309
aS'0.0 1406482668.86'
p2310
aS'0.0 1406482668.86'
p2311
aS'0.0 1406482668.86'
p2312
aS'0.0 1406482668.86'
p2313
aS'0.0 1406482668.86'
p2314
aS'0.0 1406482668.86'
p2315
aS'0.0 1406482668.86'
p2316
aS'0.0 1406482668.86'
p2317
aS'0.0 1406482668.86'
p2318
aS'0.0 1406482668.86'
p2319
aS'0.0 1406482668.86'
p2320
aS'0.0 1406482668.86'
p2321
aS'0.0 1406482668.86'
p2322
aS'0.0 1406482668.86'
p2323
aS'0.0 1406482668.86'
p2324
aS'0.0 1406482668.86'
p2325
aS'0.0 1406482668.86'
p2326
aS'0.0 1406482668.86'
p2327
aS'0.0 1406482668.86'
p2328
aS'0.0 1406482668.86'
p2329
aS'0.0 1406482668.86'
p2330
aS'0.0 1406482668.86'
p2331
aS'0.0 1406482668.86'
p2332
aS'0.0 1406482668.86'
p2333
aS'0.0 1406482668.86'
p2334
aS'0.0 1406482668.86'
p2335
aS'0.0 1406482668.86'
p2336
aS'0.0 1406482668.86'
p2337
aS'0.0 1406482668.86'
p2338
aS'0.0 1406482668.86'
p2339
aS'0.0 1406482668.86'
p2340
aS'0.0 1406482668.86'
p2341
aS'0.0 1406482668.86'
p2342
aS'0.0 1406482668.86'
p2343
aS'0.0 1406482668.86'
p2344
aS'0.0 1406482668.86'
p2345
aS'0.0 1406482668.86'
p2346
aS'0.0 1406482668.86'
p2347
aS'0.0 1406482668.86'
p2348
aS'0.0 1406482668.86'
p2349
aS'0.0 1406482668.86'
p2350
aS'0.0 1406482668.86'
p2351
aS'0.0 1406482668.86'
p2352
aS'0.0 1406482668.86'
p2353
aS'0.0 1406482668.86'
p2354
aS'0.0 1406482668.86'
p2355
aS'0.0 1406482668.86'
p2356
aS'0.0 1406482668.86'
p2357
aS'0.0 1406482668.86'
p2358
aS'0.0 1406482668.86'
p2359
aS'0.0 1406482668.86'
p2360
aS'0.0 1406482668.86'
p2361
aS'0.0 1406482668.86'
p2362
aS'0.0 1406482668.86'
p2363
aS'0.0 1406482668.86'
p2364
aS'0.0 1406482668.86'
p2365
aS'0.0 1406482668.86'
p2366
aS'0.0 1406482668.86'
p2367
aS'0.0 1406482668.86'
p2368
aS'0.0 1406482668.86'
p2369
aS'0.0 1406482668.86'
p2370
aS'0.0 1406482668.86'
p2371
aS'0.0 1406482668.86'
p2372
aS'0.0 1406482668.86'
p2373
aS'0.0 1406482668.86'
p2374
aS'0.0 1406482668.86'
p2375
aS'0.0 1406482668.86'
p2376
aS'0.0 1406482668.86'
p2377
aS'0.0 1406482668.86'
p2378
aS'0.0 1406482668.86'
p2379
aS'0.0 1406482668.86'
p2380
aS'0.0 1406482668.86'
p2381
aS'0.0 1406482668.86'
p2382
aS'0.0 1406482668.86'
p2383
aS'0.0 1406482668.86'
p2384
aS'0.0 1406482668.86'
p2385
aS'0.0 1406482668.86'
p2386
aS'0.0 1406482668.86'
p2387
aS'0.0 1406482668.86'
p2388
aS'0.0 1406482668.86'
p2389
aS'0.0 1406482668.86'
p2390
aS'0.0 1406482668.86'
p2391
aS'0.0 1406482668.86'
p2392
aS'0.0 1406482668.86'
p2393
aS'0.0 1406482668.86'
p2394
aS'0.0 1406482668.86'
p2395
aS'0.0 1406482668.86'
p2396
aS'0.0 1406482668.86'
p2397
aS'0.0 1406482668.86'
p2398
aS'399.749775366 1406486295.45'
p2399
aS'399.470863319 1406486324.46'
p2400
aS'399.192145874 1406486353.46'
p2401
aS'398.913622895 1406486382.47'
p2402
aS'398.635294245 1406486411.47'
p2403
aS'398.357159791 1406486440.48'
p2404
aS'398.079219395 1406486469.48'
p2405
aS'397.791898915 1406486499.49'
p2406
aS'397.514352911 1406486528.49'
p2407
aS'397.237000556 1406486557.5'
p2408
aS'396.959841714 1406486586.5'
p2409
aS'396.68287625 1406486615.5'
p2410
aS'396.40610403 1406486644.51'
p2411
aS'396.129524918 1406486673.51'
p2412
aS'395.85313878 1406486702.52'
p2413
aS'395.576945481 1406486731.52'
p2414
aS'395.300944887 1406486760.53'
p2415
aS'395.025136863 1406486789.53'
p2416
aS'394.749521275 1406486818.54'
p2417
aS'394.474097988 1406486847.54'
p2418
aS'394.198866869 1406486876.55'
p2419
aS'393.923827783 1406486905.55'
p2420
aS'393.648980597 1406486934.56'
p2421
aS'393.374325176 1406486963.56'
p2422
aS'393.099861386 1406486992.57'
p2423
aS'392.825589095 1406487021.57'
p2424
aS'392.551508168 1406487050.58'
p2425
aS'392.277618471 1406487079.58'
p2426
aS'392.003919872 1406487108.59'
p2427
aS'391.730412237 1406487137.59'
p2428
aS'391.457095433 1406487166.6'
p2429
aS'391.174554585 1406487196.6'
p2430
aS'390.901625612 1406487225.61'
p2431
aS'390.628887066 1406487254.61'
p2432
aS'390.356338814 1406487283.62'
p2433
aS'390.083980724 1406487312.62'
p2434
aS'389.811812662 1406487341.62'
p2435
aS'389.539834497 1406487370.63'
p2436
aS'389.268046095 1406487399.63'
p2437
aS'388.996447325 1406487428.64'
p2438
aS'388.725038053 1406487457.64'
p2439
aS'388.453818149 1406487486.65'
p2440
aS'388.182787479 1406487515.65'
p2441
aS'387.911945911 1406487544.66'
p2442
aS'387.641293314 1406487573.66'
p2443
aS'387.370829556 1406487602.67'
p2444
aS'387.100554505 1406487631.67'
p2445
aS'386.83046803 1406487660.68'
p2446
aS'386.560569998 1406487689.68'
p2447
aS'386.290860278 1406487718.68'
p2448
aS'386.02133874 1406487747.69'
p2449
aS'385.752005251 1406487776.69'
p2450
aS'385.482859681 1406487805.7'
p2451
aS'385.213901897 1406487834.7'
p2452
aS'384.945131771 1406487863.71'
p2453
aS'384.676549169 1406487892.72'
p2454
aS'384.398902296 1406487922.72'
p2455
aS'384.130700808 1406487951.72'
p2456
aS'383.862686449 1406487980.73'
p2457
aS'383.594859087 1406488009.73'
p2458
aS'383.327218593 1406488038.74'
p2459
aS'383.059764837 1406488067.74'
p2460
aS'382.792497687 1406488096.75'
p2461
aS'382.525417014 1406488125.75'
p2462
aS'382.258522688 1406488154.76'
p2463
aS'381.991814578 1406488183.76'
p2464
aS'381.725292555 1406488212.77'
p2465
aS'381.458956489 1406488241.77'
p2466
aS'381.19280625 1406488270.78'
p2467
aS'380.926841708 1406488299.78'
p2468
aS'380.661062734 1406488328.79'
p2469
aS'380.395469199 1406488357.79'
p2470
aS'380.130060972 1406488386.8'
p2471
aS'379.864837926 1406488415.8'
p2472
aS'379.59979993 1406488444.8'
p2473
aS'379.334946855 1406488473.81'
p2474
aS'379.070278572 1406488502.81'
p2475
aS'378.805794954 1406488531.82'
p2476
aS'378.541495869 1406488560.82'
p2477
aS'378.277381191 1406488589.83'
p2478
aS'378.004353026 1406488619.83'
p2479
aS'377.740613121 1406488648.84'
p2480
aS'377.477057232 1406488677.84'
p2481
aS'377.21368523 1406488706.85'
p2482
aS'376.950496987 1406488735.85'
p2483
aS'376.687492375 1406488764.86'
p2484
aS'376.424671265 1406488793.86'
p2485
aS'376.162033531 1406488822.87'
p2486
aS'375.899579042 1406488851.87'
p2487
aS'375.637307673 1406488880.88'
p2488
aS'375.375219295 1406488909.88'
p2489
aS'375.11331378 1406488938.89'
p2490
aS'374.851591001 1406488967.89'
p2491
aS'374.59005083 1406488996.9'
p2492
aS'374.328693141 1406489025.9'
p2493
aS'374.067517805 1406489054.9'
p2494
aS'373.806524695 1406489083.91'
p2495
aS'373.545713684 1406489112.91'
p2496
aS'373.285084646 1406489141.92'
p2497
aS'373.024637453 1406489170.92'
p2498
aS'372.764371978 1406489199.93'
p2499
aS'372.504288094 1406489228.93'
p2500
aS'372.244385676 1406489257.94'
p2501
aS'371.984664596 1406489286.94'
p2502
aS'371.716178307 1406489316.95'
p2503
aS'371.456825766 1406489345.95'
p2504
aS'371.197654179 1406489374.96'
p2505
aS'370.938663421 1406489403.96'
p2506
aS'370.679853364 1406489432.97'
p2507
aS'370.421223884 1406489461.97'
p2508
aS'370.162774854 1406489490.98'
p2509
aS'369.904506148 1406489519.98'
p2510
aS'369.646417641 1406489548.99'
p2511
aS'369.388509206 1406489577.99'
p2512
aS'369.130780718 1406489607.0'
p2513
aS'368.873232052 1406489636.0'
p2514
aS'368.615863081 1406489665.01'
p2515
aS'368.358673681 1406489694.01'
p2516
aS'368.101663727 1406489723.02'
p2517
aS'367.844833092 1406489752.02'
p2518
aS'367.588181653 1406489781.03'
p2519
aS'367.331709283 1406489810.04'
p2520
aS'367.075415859 1406489839.04'
p2521
aS'366.819301254 1406489868.05'
p2522
aS'366.563365345 1406489897.05'
p2523
aS'366.307608007 1406489926.06'
p2524
aS'366.052029115 1406489955.06'
p2525
aS'365.796628545 1406489984.06'
p2526
aS'365.532608577 1406490014.07'
p2527
aS'365.277570415 1406490043.07'
p2528
aS'365.022710197 1406490072.08'
p2529
aS'364.768027799 1406490101.08'
p2530
aS'364.513523098 1406490130.09'
p2531
aS'364.259195969 1406490159.09'
p2532
aS'364.005046288 1406490188.1'
p2533
aS'363.751073931 1406490217.1'
p2534
aS'363.497278775 1406490246.11'
p2535
aS'363.243660697 1406490275.11'
p2536
aS'362.990219571 1406490304.12'
p2537
aS'362.736955276 1406490333.12'
p2538
aS'362.483867688 1406490362.13'
p2539
aS'362.230956683 1406490391.13'
p2540
aS'361.978222138 1406490420.14'
p2541
aS'361.72566393 1406490449.14'
p2542
aS'361.473281936 1406490478.15'
p2543
aS'361.221076034 1406490507.15'
p2544
aS'360.9690461 1406490536.16'
p2545
aS'360.717192011 1406490565.16'
p2546
aS'360.465513645 1406490594.16'
p2547
aS'360.214010879 1406490623.17'
p2548
aS'359.96268359 1406490652.17'
p2549
aS'359.711531657 1406490681.18'
p2550
aS'359.460554957 1406490710.18'
p2551
aS'359.201108158 1406490740.19'
p2552
aS'358.950487589 1406490769.19'
p2553
aS'358.700041882 1406490798.2'
p2554
aS'358.449770915 1406490827.2'
p2555
aS'358.199674566 1406490856.21'
p2556
aS'357.949752714 1406490885.21'
p2557
aS'357.700005236 1406490914.22'
p2558
aS'357.450432011 1406490943.22'
p2559
aS'357.201032918 1406490972.23'
p2560
aS'356.951807834 1406491001.23'
p2561
aS'356.702756639 1406491030.24'
p2562
aS'356.453879211 1406491059.24'
p2563
aS'356.205175429 1406491088.25'
p2564
aS'355.956645171 1406491117.25'
p2565
aS'355.708288318 1406491146.26'
p2566
aS'355.460104747 1406491175.26'
p2567
aS'355.212094338 1406491204.27'
p2568
aS'354.964256969 1406491233.27'
p2569
aS'354.716592521 1406491262.27'
p2570
aS'354.469100873 1406491291.28'
p2571
aS'354.221781904 1406491320.28'
p2572
aS'353.974635493 1406491349.29'
p2573
aS'353.72766152 1406491378.29'
p2574
aS'353.480859866 1406491407.3'
p2575
aS'353.225729014 1406491437.3'
p2576
aS'352.979277566 1406491466.31'
p2577
aS'352.732998071 1406491495.31'
p2578
aS'352.48689041 1406491524.32'
p2579
aS'352.240954461 1406491553.32'
p2580
aS'351.995190107 1406491582.33'
p2581
aS'351.749597226 1406491611.33'
p2582
aS'351.504175699 1406491640.34'
p2583
aS'351.258925408 1406491669.34'
p2584
aS'351.013846231 1406491698.35'
p2585
aS'350.76893805 1406491727.35'
p2586
aS'350.524200746 1406491756.35'
p2587
aS'350.279634199 1406491785.36'
p2588
aS'350.03523829 1406491814.36'
p2589
aS'349.7910129 1406491843.37'
p2590
aS'349.54695791 1406491872.37'
p2591
aS'349.303073201 1406491901.38'
p2592
aS'349.059358655 1406491930.38'
p2593
aS'348.815814153 1406491959.39'
p2594
aS'348.572439575 1406491988.39'
p2595
aS'348.329234804 1406492017.4'
p2596
aS'348.086199721 1406492046.4'
p2597
aS'347.843334208 1406492075.41'
p2598
aS'347.600638146 1406492104.41'
p2599
aS'347.349751445 1406492134.42'
p2600
aS'347.107399764 1406492163.42'
p2601
aS'346.865217175 1406492192.43'
p2602
aS'346.623203562 1406492221.43'
p2603
aS'346.381358805 1406492250.44'
p2604
aS'346.139682788 1406492279.44'
p2605
aS'345.898175391 1406492308.45'
p2606
aS'345.656836499 1406492337.45'
p2607
aS'345.415665993 1406492366.46'
p2608
aS'345.174663755 1406492395.46'
p2609
aS'344.933829668 1406492424.47'
p2610
aS'344.693163616 1406492453.47'
p2611
aS'344.45266548 1406492482.48'
p2612
aS'344.212335144 1406492511.48'
p2613
aS'343.97217249 1406492540.49'
p2614
aS'343.732177402 1406492569.49'
p2615
aS'343.492349762 1406492598.49'
p2616
aS'343.252689454 1406492627.5'
p2617
aS'343.013196361 1406492656.5'
p2618
aS'342.773870366 1406492685.51'
p2619
aS'342.534711353 1406492714.51'
p2620
aS'342.295719205 1406492743.52'
p2621
aS'342.056893806 1406492772.52'
p2622
aS'341.818235039 1406492801.53'
p2623
aS'341.579742789 1406492830.53'
p2624
aS'341.341416938 1406492859.54'
p2625
aS'341.095047937 1406492889.54'
p2626
aS'340.857060267 1406492918.55'
p2627
aS'340.619238644 1406492947.55'
p2628
aS'340.381582953 1406492976.55'
p2629
aS'340.144093078 1406493005.56'
p2630
aS'339.906768905 1406493034.56'
p2631
aS'339.669610316 1406493063.57'
p2632
aS'339.432617196 1406493092.57'
p2633
aS'339.195789431 1406493121.58'
p2634
aS'338.959126904 1406493150.58'
p2635
aS'338.722629501 1406493179.59'
p2636
aS'338.486297106 1406493208.59'
p2637
aS'338.250129604 1406493237.6'
p2638
aS'338.01412688 1406493266.6'
p2639
aS'337.778288818 1406493295.61'
p2640
aS'337.542615305 1406493324.61'
p2641
aS'337.307106226 1406493353.62'
p2642
aS'337.071761465 1406493382.62'
p2643
aS'336.836580908 1406493411.63'
p2644
aS'336.60156444 1406493440.63'
p2645
aS'336.366711947 1406493469.63'
p2646
aS'336.132023315 1406493498.64'
p2647
aS'335.897498428 1406493527.64'
p2648
aS'335.663137174 1406493556.65'
p2649
aS'335.420866568 1406493586.65'
p2650
aS'335.186837868 1406493615.66'
p2651
aS'334.952972453 1406493644.66'
p2652
aS'334.71927021 1406493673.67'
p2653
aS'334.485731025 1406493702.67'
p2654
aS'334.252354785 1406493731.68'
p2655
aS'334.019141374 1406493760.68'
p2656
aS'333.786090681 1406493789.69'
p2657
aS'333.553202591 1406493818.69'
p2658
aS'333.32047699 1406493847.7'
p2659
aS'333.087913766 1406493876.7'
p2660
aS'332.855512806 1406493905.71'
p2661
aS'332.623273995 1406493934.71'
p2662
aS'332.391197222 1406493963.71'
p2663
aS'332.159282372 1406493992.72'
p2664
aS'331.927529333 1406494021.72'
p2665
aS'331.695937992 1406494050.73'
p2666
aS'331.464508236 1406494079.73'
p2667
aS'331.233239952 1406494108.74'
p2668
aS'331.002133028 1406494137.74'
p2669
aS'330.771187352 1406494166.75'
p2670
aS'330.540402809 1406494195.75'
p2671
aS'330.30977929 1406494224.76'
p2672
aS'330.079316679 1406494253.76'
p2673
aS'329.841076292 1406494283.77'
p2674
aS'329.610940704 1406494312.77'
p2675
aS'329.380965685 1406494341.77'
p2676
aS'329.151151123 1406494370.78'
p2677
aS'328.921496907 1406494399.78'
p2678
aS'328.692002925 1406494428.79'
p2679
aS'328.462669064 1406494457.79'
p2680
aS'328.233495214 1406494486.8'
p2681
aS'328.004481261 1406494515.8'
p2682
aS'327.775627096 1406494544.81'
p2683
aS'327.546932606 1406494573.81'
p2684
aS'327.31839768 1406494602.82'
p2685
aS'327.090022206 1406494631.82'
p2686
aS'326.861806074 1406494660.83'
p2687
aS'326.633749172 1406494689.83'
p2688
aS'326.405851389 1406494718.84'
p2689
aS'326.178112615 1406494747.84'
p2690
aS'325.950532737 1406494776.85'
p2691
aS'325.723111645 1406494805.85'
p2692
aS'325.495849229 1406494834.85'
p2693
aS'325.268745378 1406494863.86'
p2694
aS'325.041799981 1406494892.86'
p2695
aS'324.815012928 1406494921.87'
p2696
aS'324.588384107 1406494950.87'
p2697
aS'324.361913409 1406494979.88'
p2698
aS'324.127799655 1406495009.88'
p2699
aS'323.901650315 1406495038.89'
p2700
aS'323.675658763 1406495067.89'
p2701
aS'323.449824888 1406495096.9'
p2702
aS'323.224148582 1406495125.9'
p2703
aS'322.998629734 1406495154.91'
p2704
aS'322.773268234 1406495183.91'
p2705
aS'322.548063973 1406495212.92'
p2706
aS'322.323016841 1406495241.92'
p2707
aS'322.098126727 1406495270.93'
p2708
aS'321.873393523 1406495299.93'
p2709
aS'321.648817119 1406495328.94'
p2710
aS'321.424397406 1406495357.94'
p2711
aS'321.200134274 1406495386.94'
p2712
aS'320.976027615 1406495415.95'
p2713
aS'320.752077318 1406495444.95'
p2714
aS'320.528283275 1406495473.96'
p2715
aS'320.304645377 1406495502.96'
p2716
aS'320.081163515 1406495531.97'
p2717
aS'319.85783758 1406495560.97'
p2718
aS'319.634667463 1406495589.98'
p2719
aS'319.411653055 1406495618.98'
p2720
aS'319.188794248 1406495647.99'
p2721
aS'318.966090934 1406495676.99'
p2722
aS'318.735871707 1406495707.0'
p2723
aS'318.513484404 1406495736.0'
p2724
aS'318.291252265 1406495765.01'
p2725
aS'318.06917518 1406495794.01'
p2726
aS'317.847253042 1406495823.02'
p2727
aS'317.625485744 1406495852.02'
p2728
aS'317.403873175 1406495881.03'
p2729
aS'317.18241523 1406495910.03'
p2730
aS'316.9611118 1406495939.04'
p2731
aS'316.739962776 1406495968.04'
p2732
aS'316.518968052 1406495997.04'
p2733
aS'316.29812752 1406496026.05'
p2734
aS'316.077441071 1406496055.05'
p2735
aS'315.8569086 1406496084.06'
p2736
aS'315.636529997 1406496113.06'
p2737
aS'315.416305157 1406496142.07'
p2738
aS'315.19623397 1406496171.07'
p2739
aS'314.976316331 1406496200.08'
p2740
aS'314.756552133 1406496229.08'
p2741
aS'314.536941267 1406496258.09'
p2742
aS'314.317483628 1406496287.09'
p2743
aS'314.098179108 1406496316.1'
p2744
aS'313.8790276 1406496345.1'
p2745
aS'313.652480048 1406496375.1'
p2746
aS'313.433639511 1406496404.11'
p2747
aS'313.214951664 1406496433.11'
p2748
aS'312.996416399 1406496462.12'
p2749
aS'312.778033609 1406496491.12'
p2750
aS'312.559803188 1406496520.13'
p2751
aS'312.341725031 1406496549.13'
p2752
aS'312.12379903 1406496578.14'
p2753
aS'311.90602508 1406496607.14'
p2754
aS'311.688403075 1406496636.15'
p2755
aS'311.470932908 1406496665.15'
p2756
aS'311.253614473 1406496694.16'
p2757
aS'311.036447665 1406496723.16'
p2758
aS'310.819432378 1406496752.16'
p2759
aS'310.602568506 1406496781.17'
p2760
aS'310.385855944 1406496810.17'
p2761
aS'310.169294586 1406496839.18'
p2762
aS'309.952884326 1406496868.18'
p2763
aS'309.736625059 1406496897.19'
p2764
aS'309.52051668 1406496926.19'
p2765
aS'309.304559083 1406496955.2'
p2766
aS'309.088752163 1406496984.2'
p2767
aS'308.873095816 1406497013.21'
p2768
aS'308.657589935 1406497042.21'
p2769
aS'308.434811045 1406497072.22'
p2770
aS'308.219610963 1406497101.22'
p2771
aS'308.004561029 1406497130.23'
p2772
aS'307.78966114 1406497159.23'
p2773
aS'307.57491119 1406497188.24'
p2774
aS'307.360311074 1406497217.24'
p2775
aS'307.145860689 1406497246.25'
p2776
aS'306.931559929 1406497275.25'
p2777
aS'306.71740869 1406497304.26'
p2778
aS'306.503406868 1406497333.26'
p2779
aS'306.289554359 1406497362.26'
p2780
aS'306.075851058 1406497391.27'
p2781
aS'305.862296861 1406497420.27'
p2782
aS'305.648891665 1406497449.28'
p2783
aS'305.435635365 1406497478.28'
p2784
aS'305.222527858 1406497507.29'
p2785
aS'305.009569039 1406497536.29'
p2786
aS'304.796758805 1406497565.3'
p2787
aS'304.584097053 1406497594.3'
p2788
aS'304.371583678 1406497623.31'
p2789
aS'304.159218577 1406497652.31'
p2790
aS'303.947001647 1406497681.32'
p2791
aS'303.734932784 1406497710.32'
p2792
aS'303.523011885 1406497739.33'
p2793
aS'303.311238846 1406497768.33'
p2794
aS'303.092318776 1406497798.34'
p2795
aS'302.88084624 1406497827.34'
p2796
aS'302.669521251 1406497856.35'
p2797
aS'302.458343707 1406497885.35'
p2798
aS'302.247313506 1406497914.36'
p2799
aS'302.036430543 1406497943.36'
p2800
aS'301.825694718 1406497972.37'
p2801
aS'301.615105926 1406498001.37'
p2802
aS'301.404664065 1406498030.37'
p2803
aS'301.194369033 1406498059.38'
p2804
aS'300.984220728 1406498088.38'
p2805
aS'300.774219046 1406498117.39'
p2806
aS'300.564363886 1406498146.39'
p2807
aS'300.354655146 1406498175.4'
p2808
aS'300.145092722 1406498204.4'
p2809
aS'299.935676514 1406498233.41'
p2810
aS'299.726406419 1406498262.41'
p2811
aS'299.517282336 1406498291.42'
p2812
aS'299.308304161 1406498320.42'
p2813
aS'299.099471795 1406498349.43'
p2814
aS'298.890785134 1406498378.43'
p2815
aS'298.682244077 1406498407.44'
p2816
aS'298.473848522 1406498436.44'
p2817
aS'298.265598369 1406498465.44'
p2818
aS'298.050320076 1406498495.45'
p2819
aS'297.842365426 1406498524.45'
p2820
aS'297.634555869 1406498553.46'
p2821
aS'297.426891304 1406498582.46'
p2822
aS'297.21937163 1406498611.47'
p2823
aS'297.011996746 1406498640.47'
p2824
aS'296.804766551 1406498669.48'
p2825
aS'296.597680944 1406498698.48'
p2826
aS'296.390739824 1406498727.49'
p2827
aS'296.18394309 1406498756.49'
p2828
aS'295.977290642 1406498785.5'
p2829
aS'295.770782378 1406498814.5'
p2830
aS'295.564418199 1406498843.51'
p2831
aS'295.358198004 1406498872.51'
p2832
aS'295.152121691 1406498901.51'
p2833
aS'294.946189162 1406498930.52'
p2834
aS'294.740400315 1406498959.52'
p2835
aS'294.534755051 1406498988.53'
p2836
aS'294.329253268 1406499017.53'
p2837
aS'294.123894868 1406499046.54'
p2838
aS'293.918679749 1406499075.54'
p2839
aS'293.713607813 1406499104.55'
p2840
aS'293.508678958 1406499133.55'
p2841
aS'293.303893086 1406499162.56'
p2842
aS'293.099250097 1406499191.56'
p2843
aS'292.89474989 1406499220.57'
p2844
aS'292.683348099 1406499250.57'
p2845
aS'292.479138074 1406499279.58'
p2846
aS'292.275070529 1406499308.58'
p2847
aS'292.071145366 1406499337.58'
p2848
aS'291.867362485 1406499366.59'
p2849
aS'291.663721787 1406499395.59'
p2850
aS'291.460223172 1406499424.6'
p2851
aS'291.256866541 1406499453.6'
p2852
aS'291.053651796 1406499482.61'
p2853
aS'290.850578837 1406499511.61'
p2854
aS'290.647647565 1406499540.62'
p2855
aS'290.444857882 1406499569.62'
p2856
aS'290.242209689 1406499598.63'
p2857
aS'290.039702886 1406499627.63'
p2858
aS'289.837337376 1406499656.64'
p2859
aS'289.63511306 1406499685.64'
p2860
aS'289.433029839 1406499714.65'
p2861
aS'289.231087615 1406499743.65'
p2862
aS'289.029286289 1406499772.65'
p2863
aS'288.827625764 1406499801.66'
p2864
aS'288.62610594 1406499830.66'
p2865
aS'288.42472672 1406499859.67'
p2866
aS'288.223488006 1406499888.67'
p2867
aS'288.022389699 1406499917.68'
p2868
aS'287.814504617 1406499947.68'
p2869
aS'287.613691665 1406499976.69'
p2870
aS'287.413018823 1406500005.69'
p2871
aS'287.212485994 1406500034.7'
p2872
aS'287.01209308 1406500063.7'
p2873
aS'286.811839984 1406500092.71'
p2874
aS'286.611726607 1406500121.71'
p2875
aS'286.411752853 1406500150.72'
p2876
aS'286.211918624 1406500179.72'
p2877
aS'286.012223822 1406500208.72'
p2878
aS'285.812668351 1406500237.73'
p2879
aS'285.613252113 1406500266.73'
p2880
aS'285.413975011 1406500295.74'
p2881
aS'285.214836948 1406500324.74'
p2882
aS'285.015837827 1406500353.75'
p2883
aS'284.816977551 1406500382.75'
p2884
aS'284.618256023 1406500411.76'
p2885
aS'284.419673147 1406500440.76'
p2886
aS'284.221228825 1406500469.77'
p2887
aS'284.022922961 1406500498.77'
p2888
aS'283.824755458 1406500527.78'
p2889
aS'283.626726219 1406500556.78'
p2890
aS'283.42883515 1406500585.79'
p2891
aS'283.231082152 1406500614.79'
p2892
aS'283.033467129 1406500643.8'
p2893
aS'282.835989986 1406500672.8'
p2894
aS'282.631848277 1406500702.81'
p2895
aS'282.43465135 1406500731.81'
p2896
aS'282.23759201 1406500760.81'
p2897
aS'282.040670162 1406500789.82'
p2898
aS'281.84388571 1406500818.82'
p2899
aS'281.647238558 1406500847.83'
p2900
aS'281.450728609 1406500876.83'
p2901
aS'281.254355769 1406500905.84'
p2902
aS'281.058119941 1406500934.84'
p2903
aS'280.862021031 1406500963.85'
p2904
aS'280.666058941 1406500992.85'
p2905
aS'280.470233578 1406501021.86'
p2906
aS'280.274544846 1406501050.86'
p2907
aS'280.078992648 1406501079.87'
p2908
aS'279.883576891 1406501108.87'
p2909
aS'279.688297479 1406501137.88'
p2910
aS'279.493154316 1406501166.88'
p2911
aS'279.298147308 1406501195.89'
p2912
aS'279.103276359 1406501224.89'
p2913
aS'278.908541375 1406501253.9'
p2914
aS'278.713942261 1406501282.9'
p2915
aS'278.519478922 1406501311.9'
p2916
aS'278.325151263 1406501340.91'
p2917
aS'278.13095919 1406501369.91'
p2918
aS'277.930213417 1406501399.92'
p2919
aS'277.736296899 1406501428.92'
p2920
aS'277.542515679 1406501457.93'
p2921
aS'277.348869664 1406501486.93'
p2922
aS'277.155358759 1406501515.94'
p2923
aS'276.961982869 1406501544.94'
p2924
aS'276.768741901 1406501573.95'
p2925
aS'276.575635761 1406501602.95'
p2926
aS'276.382664354 1406501631.96'
p2927
aS'276.189827586 1406501660.96'
p2928
aS'275.997125364 1406501689.96'
p2929
aS'275.804557593 1406501718.97'
p2930
aS'275.61212418 1406501747.97'
p2931
aS'275.419825031 1406501776.98'
p2932
aS'275.227660052 1406501805.98'
p2933
aS'275.03562915 1406501834.99'
p2934
aS'274.843732231 1406501863.99'
p2935
aS'274.651969201 1406501893.0'
p2936
aS'274.460339968 1406501922.0'
p2937
aS'274.268844438 1406501951.01'
p2938
aS'274.077482518 1406501980.01'
p2939
aS'273.886254113 1406502009.02'
p2940
aS'273.695159132 1406502038.02'
p2941
aS'273.504197482 1406502067.03'
p2942
aS'273.306791153 1406502097.03'
p2943
aS'273.116100473 1406502126.04'
p2944
aS'272.925542841 1406502155.04'
p2945
aS'272.735118164 1406502184.05'
p2946
aS'272.54482635 1406502213.05'
p2947
aS'272.354667305 1406502242.06'
p2948
aS'272.164640938 1406502271.06'
p2949
aS'271.974747155 1406502300.07'
p2950
aS'271.784985864 1406502329.07'
p2951
aS'271.595356973 1406502358.07'
p2952
aS'271.405860389 1406502387.08'
p2953
aS'271.21649602 1406502416.08'
p2954
aS'271.027263773 1406502445.09'
p2955
aS'270.838163557 1406502474.09'
p2956
aS'270.64919528 1406502503.1'
p2957
aS'270.460358848 1406502532.1'
p2958
aS'270.271654171 1406502561.11'
p2959
aS'270.083081157 1406502590.11'
p2960
aS'269.894639713 1406502619.12'
p2961
aS'269.706329747 1406502648.12'
p2962
aS'269.518151169 1406502677.13'
p2963
aS'269.330103886 1406502706.13'
p2964
aS'269.142187806 1406502735.13'
p2965
aS'268.954402839 1406502764.14'
p2966
aS'268.766748892 1406502793.14'
p2967
aS'268.572761898 1406502823.15'
p2968
aS'268.385374229 1406502852.15'
p2969
aS'268.198117303 1406502881.16'
p2970
aS'268.01099103 1406502910.16'
p2971
aS'267.823995317 1406502939.17'
p2972
aS'267.637130075 1406502968.17'
p2973
aS'267.450395211 1406502997.18'
p2974
aS'267.263790636 1406503026.18'
p2975
aS'267.077316257 1406503055.19'
p2976
aS'266.890971985 1406503084.19'
p2977
aS'266.704757729 1406503113.2'
p2978
aS'266.518673397 1406503142.2'
p2979
aS'266.332718899 1406503171.21'
p2980
aS'266.146894145 1406503200.21'
p2981
aS'265.961199044 1406503229.22'
p2982
aS'265.775633505 1406503258.22'
p2983
aS'265.590197439 1406503287.22'
p2984
aS'265.404890754 1406503316.23'
p2985
aS'265.219713361 1406503345.23'
p2986
aS'265.034665169 1406503374.24'
p2987
aS'264.849746089 1406503403.24'
p2988
aS'264.664956029 1406503432.25'
p2989
aS'264.480294901 1406503461.25'
p2990
aS'264.295762613 1406503490.26'
p2991
aS'264.10500263 1406503520.26'
p2992
aS'263.920732191 1406503549.27'
p2993
aS'263.736590319 1406503578.27'
p2994
aS'263.552576927 1406503607.28'
p2995
aS'263.368691924 1406503636.28'
p2996
aS'263.184935221 1406503665.29'
p2997
aS'263.001306727 1406503694.29'
p2998
aS'262.817806355 1406503723.3'
p2999
aS'262.634434013 1406503752.3'
p3000
aS'262.451189614 1406503781.3'
p3001
a.