(lp1
S'7.92230996552 1406416670.11'
p2
aS'7.92784135665 1406416699.11'
p3
aS'7.93337660983 1406416728.12'
p4
aS'7.93891572775 1406416757.12'
p5
aS'7.9444587131 1406416786.13'
p6
aS'7.95000556859 1406416815.13'
p7
aS'7.95555629692 1406416844.14'
p8
aS'7.96111090079 1406416873.14'
p9
aS'7.96666938291 1406416902.15'
p10
aS'7.97223174598 1406416931.15'
p11
aS'7.97779799273 1406416960.16'
p12
aS'7.98336812584 1406416989.16'
p13
aS'7.98894214805 1406417018.16'
p14
aS'7.99452006207 1406417047.17'
p15
aS'8.00010187061 1406417076.17'
p16
aS'8.00568757639 1406417105.18'
p17
aS'8.01127718214 1406417134.18'
p18
aS'8.01687069057 1406417163.19'
p19
aS'8.02246810442 1406417192.19'
p20
aS'8.02806942641 1406417221.2'
p21
aS'8.03367465926 1406417250.2'
p22
aS'8.03928380571 1406417279.21'
p23
aS'8.04509049226 1406417309.21'
p24
aS'8.05070760929 1406417338.22'
p25
aS'8.05632864822 1406417367.22'
p26
aS'8.06195361178 1406417396.23'
p27
aS'8.06758250272 1406417425.23'
p28
aS'8.07321532377 1406417454.24'
p29
aS'8.07885207769 1406417483.24'
p30
aS'8.08449276721 1406417512.25'
p31
aS'8.09013739508 1406417541.25'
p32
aS'8.09578596405 1406417570.25'
p33
aS'8.10143847689 1406417599.26'
p34
aS'8.10709493633 1406417628.26'
p35
aS'8.11275534513 1406417657.27'
p36
aS'8.11841970606 1406417686.27'
p37
aS'8.12408802187 1406417715.28'
p38
aS'8.12976029532 1406417744.28'
p39
aS'8.13543652917 1406417773.29'
p40
aS'8.1411167262 1406417802.29'
p41
aS'8.14680088917 1406417831.3'
p42
aS'8.15248902084 1406417860.3'
p43
aS'8.15818112399 1406417889.31'
p44
aS'8.16387720139 1406417918.31'
p45
aS'8.16957725582 1406417947.32'
p46
aS'8.17528129005 1406417976.32'
p47
aS'8.18098930687 1406418005.33'
p48
aS'8.18689834575 1406418035.33'
p49
aS'8.19261447364 1406418064.34'
p50
aS'8.19833459256 1406418093.34'
p51
aS'8.20405870529 1406418122.35'
p52
aS'8.20978681461 1406418151.35'
p53
aS'8.21551892333 1406418180.35'
p54
aS'8.22125503424 1406418209.36'
p55
aS'8.22699515012 1406418238.36'
p56
aS'8.23273927377 1406418267.37'
p57
aS'8.238487408 1406418296.37'
p58
aS'8.24423955559 1406418325.38'
p59
aS'8.24999571937 1406418354.38'
p60
aS'8.25575590212 1406418383.39'
p61
aS'8.26152010665 1406418412.39'
p62
aS'8.26728833578 1406418441.4'
p63
aS'8.27306059231 1406418470.4'
p64
aS'8.27883687905 1406418499.41'
p65
aS'8.28461719883 1406418528.41'
p66
aS'8.29040155445 1406418557.42'
p67
aS'8.29618994873 1406418586.42'
p68
aS'8.30198238449 1406418615.43'
p69
aS'8.30777886455 1406418644.43'
p70
aS'8.31357939175 1406418673.44'
p71
aS'8.31958419899 1406418703.44'
p72
aS'8.32539296872 1406418732.45'
p73
aS'8.33120579416 1406418761.45'
p74
aS'8.33702267814 1406418790.46'
p75
aS'8.34284362349 1406418819.46'
p76
aS'8.34866863305 1406418848.47'
p77
aS'8.35449770965 1406418877.47'
p78
aS'8.36033085615 1406418906.47'
p79
aS'8.36616807537 1406418935.48'
p80
aS'8.37200937016 1406418964.48'
p81
aS'8.37785474337 1406418993.49'
p82
aS'8.38370419785 1406419022.49'
p83
aS'8.38955773643 1406419051.5'
p84
aS'8.39541536199 1406419080.5'
p85
aS'8.40127707737 1406419109.51'
p86
aS'8.40714288542 1406419138.51'
p87
aS'8.413012789 1406419167.52'
p88
aS'8.41888679097 1406419196.52'
p89
aS'8.4247648942 1406419225.53'
p90
aS'8.43064710155 1406419254.53'
p91
aS'8.43653341588 1406419283.54'
p92
aS'8.44242384005 1406419312.54'
p93
aS'8.44831837695 1406419341.54'
p94
aS'8.45442050469 1406419371.55'
p95
aS'8.46032341771 1406419400.55'
p96
aS'8.46623045217 1406419429.56'
p97
aS'8.47214161095 1406419458.56'
p98
aS'8.47805689693 1406419487.57'
p99
aS'8.48397631298 1406419516.57'
p100
aS'8.48989986199 1406419545.58'
p101
aS'8.49582754686 1406419574.58'
p102
aS'8.50175937046 1406419603.59'
p103
aS'8.50769533568 1406419632.59'
p104
aS'8.51363544542 1406419661.6'
p105
aS'8.51957970257 1406419690.6'
p106
aS'8.52552811002 1406419719.6'
p107
aS'8.53148067068 1406419748.61'
p108
aS'8.53743738744 1406419777.61'
p109
aS'8.54339826321 1406419806.62'
p110
aS'8.54936330089 1406419835.62'
p111
aS'8.55533250338 1406419864.63'
p112
aS'8.5613058736 1406419893.63'
p113
aS'8.56728341445 1406419922.64'
p114
aS'8.57326512884 1406419951.64'
p115
aS'8.5792510197 1406419980.65'
p116
aS'8.58524108992 1406420009.65'
p117
aS'8.59123534244 1406420038.66'
p118
aS'8.59744069754 1406420068.66'
p119
aS'8.60344346788 1406420097.67'
p120
aS'8.60945042938 1406420126.67'
p121
aS'8.61546158497 1406420155.67'
p122
aS'8.62147693757 1406420184.68'
p123
aS'8.62749649012 1406420213.68'
p124
aS'8.63352024554 1406420242.69'
p125
aS'8.63954820678 1406420271.69'
p126
aS'8.64558037676 1406420300.7'
p127
aS'8.65161675843 1406420329.7'
p128
aS'8.65765735473 1406420358.71'
p129
aS'8.6637021686 1406420387.71'
p130
aS'8.66975120299 1406420416.72'
p131
aS'8.67580446084 1406420445.72'
p132
aS'8.6818619451 1406420474.73'
p133
aS'8.68792365872 1406420503.73'
p134
aS'8.69398960465 1406420532.74'
p135
aS'8.70005978586 1406420561.74'
p136
aS'8.70613420529 1406420590.74'
p137
aS'8.71221286591 1406420619.75'
p138
aS'8.71829577067 1406420648.75'
p139
aS'8.72438292255 1406420677.76'
p140
aS'8.7304743245 1406420706.76'
p141
aS'8.73656997949 1406420735.77'
p142
aS'8.7428803082 1406420765.77'
p143
aS'8.74898462511 1406420794.78'
p144
aS'8.75509320408 1406420823.78'
p145
aS'8.76120604808 1406420852.79'
p146
aS'8.76732316009 1406420881.79'
p147
aS'8.77344454311 1406420910.79'
p148
aS'8.77957020009 1406420939.8'
p149
aS'8.78570013404 1406420968.8'
p150
aS'8.79183434793 1406420997.81'
p151
aS'8.79797284476 1406421026.81'
p152
aS'8.80411562752 1406421055.82'
p153
aS'8.81026269919 1406421084.82'
p154
aS'8.81641406277 1406421113.83'
p155
aS'8.82256972126 1406421142.83'
p156
aS'8.82872967766 1406421171.84'
p157
aS'8.83489393497 1406421200.84'
p158
aS'8.84106249619 1406421229.85'
p159
aS'8.84723536432 1406421258.85'
p160
aS'8.85341254238 1406421287.86'
p161
aS'8.85959403337 1406421316.86'
p162
aS'8.86577984031 1406421345.87'
p163
aS'8.8719699662 1406421374.87'
p164
aS'8.87816441406 1406421403.88'
p165
aS'8.88436318692 1406421432.88'
p166
aS'8.89078026504 1406421462.88'
p167
aS'8.89698784634 1406421491.89'
p168
aS'8.90319976179 1406421520.89'
p169
aS'8.90941601444 1406421549.9'
p170
aS'8.91563660729 1406421578.9'
p171
aS'8.9218615434 1406421607.91'
p172
aS'8.92809082578 1406421636.91'
p173
aS'8.93432445747 1406421665.92'
p174
aS'8.94056244151 1406421694.92'
p175
aS'8.94680478094 1406421723.93'
p176
aS'8.95305147879 1406421752.93'
p177
aS'8.95930253812 1406421781.94'
p178
aS'8.96555796196 1406421810.94'
p179
aS'8.97181775337 1406421839.95'
p180
aS'8.97808191539 1406421868.95'
p181
aS'8.98435045108 1406421897.95'
p182
aS'8.99062336349 1406421926.96'
p183
aS'8.99690065567 1406421955.96'
p184
aS'9.00318233068 1406421984.97'
p185
aS'9.00946839159 1406422013.97'
p186
aS'9.01575884145 1406422042.98'
p187
aS'9.02205368333 1406422071.98'
p188
aS'9.02835292029 1406422100.99'
p189
aS'9.03487400062 1406422130.99'
p190
aS'9.04118218879 1406422160.0'
p191
aS'9.04749478136 1406422189.0'
p192
aS'9.05381178141 1406422218.01'
p193
aS'9.06013319202 1406422247.01'
p194
aS'9.06645901626 1406422276.02'
p195
aS'9.07278925722 1406422305.02'
p196
aS'9.07912391799 1406422334.03'
p197
aS'9.08546300164 1406422363.03'
p198
aS'9.09180651127 1406422392.04'
p199
aS'9.09815444996 1406422421.04'
p200
aS'9.10450682081 1406422450.05'
p201
aS'9.11086362691 1406422479.05'
p202
aS'9.11722487136 1406422508.05'
p203
aS'9.12359055727 1406422537.06'
p204
aS'9.12996068772 1406422566.06'
p205
aS'9.13633526582 1406422595.07'
p206
aS'9.14271429468 1406422624.07'
p207
aS'9.14909777741 1406422653.08'
p208
aS'9.15548571711 1406422682.08'
p209
aS'9.1618781169 1406422711.09'
p210
aS'9.16827497989 1406422740.09'
p211
aS'9.1746763092 1406422769.1'
p212
aS'9.18108210795 1406422798.1'
p213
aS'9.1877135029 1406422828.11'
p214
aS'9.19412840426 1406422857.11'
p215
aS'9.20054778455 1406422886.12'
p216
aS'9.20697164687 1406422915.12'
p217
aS'9.21339999436 1406422944.13'
p218
aS'9.21983283014 1406422973.13'
p219
aS'9.22627015737 1406423002.14'
p220
aS'9.23271197916 1406423031.14'
p221
aS'9.23915829866 1406423060.15'
p222
aS'9.24560911901 1406423089.15'
p223
aS'9.25206444335 1406423118.16'
p224
aS'9.25852427482 1406423147.16'
p225
aS'9.26498861658 1406423176.17'
p226
aS'9.27145747177 1406423205.17'
p227
aS'9.27793084354 1406423234.18'
p228
aS'9.28440873505 1406423263.18'
p229
aS'9.29089114945 1406423292.18'
p230
aS'9.2973780899 1406423321.19'
p231
aS'9.30386955956 1406423350.19'
p232
aS'9.31036556159 1406423379.2'
p233
aS'9.31686609916 1406423408.2'
p234
aS'9.32337117543 1406423437.21'
p235
aS'9.32988079357 1406423466.21'
p236
aS'9.33639495676 1406423495.22'
p237
aS'9.34291366816 1406423524.22'
p238
aS'9.34966195227 1406423554.23'
p239
aS'9.35618992675 1406423583.23'
p240
aS'9.36272245909 1406423612.24'
p241
aS'9.36925955247 1406423641.24'
p242
aS'9.37580121008 1406423670.24'
p243
aS'9.3823474351 1406423699.25'
p244
aS'9.38889823072 1406423728.25'
p245
aS'9.39545360014 1406423757.26'
p246
aS'9.40201354655 1406423786.26'
p247
aS'9.40857807314 1406423815.27'
p248
aS'9.41514718311 1406423844.27'
p249
aS'9.42172087966 1406423873.28'
p250
aS'9.42829916599 1406423902.28'
p251
aS'9.43488204531 1406423931.29'
p252
aS'9.44146952083 1406423960.29'
p253
aS'9.44806159575 1406423989.3'
p254
aS'9.45465827328 1406424018.3'
p255
aS'9.46125955665 1406424047.31'
p256
aS'9.46786544906 1406424076.31'
p257
aS'9.47447595373 1406424105.32'
p258
aS'9.48109107388 1406424134.32'
p259
aS'9.48771081274 1406424163.32'
p260
aS'9.49433517354 1406424192.33'
p261
aS'9.50119282774 1406424222.33'
p262
aS'9.50782660173 1406424251.34'
p263
aS'9.51446500745 1406424280.34'
p264
aS'9.52110804814 1406424309.35'
p265
aS'9.52775572702 1406424338.35'
p266
aS'9.53440804735 1406424367.36'
p267
aS'9.54106501235 1406424396.36'
p268
aS'9.54772662527 1406424425.37'
p269
aS'9.55439288936 1406424454.37'
p270
aS'9.56106380787 1406424483.38'
p271
aS'9.56773938404 1406424512.38'
p272
aS'9.57441962113 1406424541.38'
p273
aS'9.58110452238 1406424570.39'
p274
aS'9.58779409107 1406424599.39'
p275
aS'9.59448833044 1406424628.4'
p276
aS'9.60118724375 1406424657.4'
p277
aS'9.60789083428 1406424686.41'
p278
aS'9.61459910528 1406424715.41'
p279
aS'9.62131206003 1406424744.42'
p280
aS'9.62802970179 1406424773.42'
p281
aS'9.63475203383 1406424802.43'
p282
aS'9.64147905944 1406424831.43'
p283
aS'9.64821078189 1406424860.44'
p284
aS'9.65494720445 1406424889.44'
p285
aS'9.66192086697 1406424919.45'
p286
aS'9.66866686197 1406424948.45'
p287
aS'9.67541756706 1406424977.45'
p288
aS'9.68217298552 1406425006.46'
p289
aS'9.68893312064 1406425035.46'
p290
aS'9.69569797572 1406425064.47'
p291
aS'9.70246755405 1406425093.47'
p292
aS'9.70924185893 1406425122.48'
p293
aS'9.71602089365 1406425151.48'
p294
aS'9.72280466153 1406425180.49'
p295
aS'9.72959316587 1406425209.49'
p296
aS'9.73638640996 1406425238.5'
p297
aS'9.74318439713 1406425267.5'
p298
aS'9.74998713069 1406425296.51'
p299
aS'9.75679461394 1406425325.51'
p300
aS'9.76360685021 1406425354.51'
p301
aS'9.77042384281 1406425383.52'
p302
aS'9.77724559506 1406425412.52'
p303
aS'9.78407211029 1406425441.53'
p304
aS'9.79090339182 1406425470.53'
p305
aS'9.79773944298 1406425499.54'
p306
aS'9.80458026711 1406425528.54'
p307
aS'9.81142586752 1406425557.55'
p308
aS'9.81851255286 1406425587.55'
p309
aS'9.82536788086 1406425616.56'
p310
aS'9.83222799528 1406425645.56'
p311
aS'9.83909289946 1406425674.57'
p312
aS'9.84596259674 1406425703.57'
p313
aS'9.85283709048 1406425732.58'
p314
aS'9.85971638402 1406425761.58'
p315
aS'9.86660048071 1406425790.59'
p316
aS'9.87348938391 1406425819.59'
p317
aS'9.88038309697 1406425848.6'
p318
aS'9.88728162325 1406425877.6'
p319
aS'9.89418496611 1406425906.61'
p320
aS'9.90109312892 1406425935.61'
p321
aS'9.90800611504 1406425964.61'
p322
aS'9.91492392783 1406425993.62'
p323
aS'9.92184657067 1406426022.62'
p324
aS'9.92877404692 1406426051.63'
p325
aS'9.93570635997 1406426080.63'
p326
aS'9.9426435132 1406426109.64'
p327
aS'9.94958550997 1406426138.64'
p328
aS'9.95653235368 1406426167.65'
p329
aS'9.9634840477 1406426196.65'
p330
aS'9.97044059542 1406426225.66'
p331
aS'9.97764213535 1406426255.66'
p332
aS'9.98460856831 1406426284.67'
p333
aS'9.99157986527 1406426313.67'
p334
aS'9.99855602962 1406426342.68'
p335
aS'5.00252773792 1406426371.68'
p336
aS'5.00602052446 1406426400.69'
p337
aS'5.00951574967 1406426429.69'
p338
aS'5.01301341527 1406426458.7'
p339
aS'5.01651352296 1406426487.7'
p340
aS'5.02001607443 1406426516.71'
p341
aS'5.0235210714 1406426545.71'
p342
aS'5.02702851557 1406426574.72'
p343
aS'5.03053840866 1406426603.72'
p344
aS'5.03405075237 1406426632.73'
p345
aS'5.03756554841 1406426661.73'
p346
aS'5.0410827985 1406426690.74'
p347
aS'5.04460250435 1406426719.74'
p348
aS'5.04812466767 1406426748.75'
p349
aS'5.05164929018 1406426777.75'
p350
aS'5.0551763736 1406426806.75'
p351
aS'5.05870591965 1406426835.76'
p352
aS'5.06223793003 1406426864.76'
p353
aS'5.06577240649 1406426893.77'
p354
aS'5.06930935073 1406426922.77'
p355
aS'5.07297085729 1406426952.78'
p356
aS'5.07651282752 1406426981.78'
p357
aS'5.08005727077 1406427010.79'
p358
aS'5.08360418876 1406427039.79'
p359
aS'5.08715358323 1406427068.8'
p360
aS'5.0907054559 1406427097.8'
p361
aS'5.0942598085 1406427126.81'
p362
aS'5.09781664277 1406427155.81'
p363
aS'5.10137596043 1406427184.82'
p364
aS'5.10493776323 1406427213.82'
p365
aS'5.10850205289 1406427242.83'
p366
aS'5.11206883115 1406427271.83'
p367
aS'5.11563809976 1406427300.84'
p368
aS'5.11920986044 1406427329.84'
p369
aS'5.12278411494 1406427358.85'
p370
aS'5.126360865 1406427387.85'
p371
aS'5.12994011236 1406427416.86'
p372
aS'5.13352185877 1406427445.86'
p373
aS'5.13710610597 1406427474.87'
p374
aS'5.14069285571 1406427503.87'
p375
aS'5.14428210973 1406427532.87'
p376
aS'5.14787386979 1406427561.88'
p377
aS'5.15146813763 1406427590.88'
p378
aS'5.155064915 1406427619.89'
p379
aS'5.15878836187 1406427649.89'
p380
aS'5.16239025025 1406427678.9'
p381
aS'5.16599465348 1406427707.9'
p382
aS'5.16960157333 1406427736.91'
p383
aS'5.17321101154 1406427765.91'
p384
aS'5.17682296988 1406427794.92'
p385
aS'5.18043745011 1406427823.92'
p386
aS'5.18405445398 1406427852.93'
p387
aS'5.18767398325 1406427881.93'
p388
aS'5.1912960397 1406427910.94'
p389
aS'5.19492062509 1406427939.94'
p390
aS'5.19854774117 1406427968.95'
p391
aS'5.20217738972 1406427997.95'
p392
aS'5.20580957251 1406428026.95'
p393
aS'5.20944429131 1406428055.96'
p394
aS'5.21308154788 1406428084.96'
p395
aS'5.216721344 1406428113.97'
p396
aS'5.22036368144 1406428142.97'
p397
aS'5.22400856198 1406428171.98'
p398
aS'5.22765598739 1406428200.98'
p399
aS'5.23130595945 1406428229.99'
p400
aS'5.23495847993 1406428258.99'
p401
aS'5.23861355062 1406428288.0'
p402
aS'5.24239734375 1406428318.0'
p403
aS'5.24605760829 1406428347.01'
p404
aS'5.24972042844 1406428376.01'
p405
aS'5.25338580598 1406428405.02'
p406
aS'5.25705374271 1406428434.02'
p407
aS'5.26072424041 1406428463.03'
p408
aS'5.26439730086 1406428492.03'
p409
aS'5.26807292586 1406428521.04'
p410
aS'5.2717511172 1406428550.04'
p411
aS'5.27543187667 1406428579.04'
p412
aS'5.27911520606 1406428608.05'
p413
aS'5.28280110716 1406428637.05'
p414
aS'5.28648958178 1406428666.06'
p415
aS'5.29018063171 1406428695.06'
p416
aS'5.29387425874 1406428724.07'
p417
aS'5.29757046468 1406428753.07'
p418
aS'5.30126925133 1406428782.08'
p419
aS'5.30497062049 1406428811.08'
p420
aS'5.30867457396 1406428840.09'
p421
aS'5.31238111354 1406428869.09'
p422
aS'5.31609024105 1406428898.1'
p423
aS'5.31980195829 1406428927.1'
p424
aS'5.32351626706 1406428956.11'
p425
aS'5.32723316918 1406428985.11'
p426
aS'5.33108097129 1406429015.12'
p427
aS'5.33480315512 1406429044.12'
p428
aS'5.33852793779 1406429073.13'
p429
aS'5.34225532113 1406429102.13'
p430
aS'5.34598530693 1406429131.14'
p431
aS'5.34971789703 1406429160.14'
p432
aS'5.35345309325 1406429189.14'
p433
aS'5.35719089739 1406429218.15'
p434
aS'5.36093131128 1406429247.15'
p435
aS'5.36467433674 1406429276.16'
p436
aS'5.36841997561 1406429305.16'
p437
aS'5.37216822969 1406429334.17'
p438
aS'5.37591910082 1406429363.17'
p439
aS'5.37967259083 1406429392.18'
p440
aS'5.38342870153 1406429421.18'
p441
aS'5.38718743477 1406429450.19'
p442
aS'5.39094879238 1406429479.19'
p443
aS'5.39471277618 1406429508.2'
p444
aS'5.39847938801 1406429537.2'
p445
aS'5.4022486297 1406429566.2'
p446
aS'5.4060205031 1406429595.21'
p447
aS'5.40979501004 1406429624.21'
p448
aS'5.41357215235 1406429653.22'
p449
aS'5.41735193188 1406429682.22'
p450
aS'5.42126482578 1406429712.23'
p451
aS'5.42504997637 1406429741.23'
p452
aS'5.42883776976 1406429770.24'
p453
aS'5.43262820781 1406429799.24'
p454
aS'5.43642129236 1406429828.25'
p455
aS'5.44021702526 1406429857.25'
p456
aS'5.44401540835 1406429886.26'
p457
aS'5.4478164435 1406429915.26'
p458
aS'5.45162013254 1406429944.27'
p459
aS'5.45542647733 1406429973.27'
p460
aS'5.45923547973 1406430002.28'
p461
aS'5.46304714159 1406430031.28'
p462
aS'5.46686146477 1406430060.28'
p463
aS'5.47067845113 1406430089.29'
p464
aS'5.47449810252 1406430118.29'
p465
aS'5.47832042081 1406430147.3'
p466
aS'5.48214540786 1406430176.3'
p467
aS'5.48597306554 1406430205.31'
p468
aS'5.4898033957 1406430234.31'
p469
aS'5.49363640021 1406430263.32'
p470
aS'5.49747208094 1406430292.32'
p471
aS'5.50131043977 1406430321.33'
p472
aS'5.50515147855 1406430350.33'
p473
aS'5.50899519916 1406430379.34'
p474
aS'5.51284160347 1406430408.34'
p475
aS'5.51682346852 1406430438.34'
p476
aS'5.52067533857 1406430467.35'
p477
aS'5.524529898 1406430496.35'
p478
aS'5.52838714871 1406430525.36'
p479
aS'5.53224709257 1406430554.36'
p480
aS'5.53610973145 1406430583.37'
p481
aS'5.53997506725 1406430612.37'
p482
aS'5.54384310184 1406430641.38'
p483
aS'5.54771383711 1406430670.38'
p484
aS'5.55158727495 1406430699.39'
p485
aS'5.55546341723 1406430728.39'
p486
aS'5.55934226586 1406430757.4'
p487
aS'5.56322382271 1406430786.4'
p488
aS'5.56710808968 1406430815.41'
p489
aS'5.57099506867 1406430844.41'
p490
aS'5.57488476156 1406430873.42'
p491
aS'5.57877717025 1406430902.42'
p492
aS'5.58267229664 1406430931.42'
p493
aS'5.58657014262 1406430960.43'
p494
aS'5.59047071009 1406430989.43'
p495
aS'5.59437400096 1406431018.44'
p496
aS'5.59828001713 1406431047.44'
p497
aS'5.60218876049 1406431076.45'
p498
aS'5.60610023295 1406431105.45'
p499
aS'5.61014945768 1406431135.46'
p500
aS'5.61406648834 1406431164.46'
p501
aS'5.61798625388 1406431193.47'
p502
aS'5.62190875622 1406431222.47'
p503
aS'5.62583399727 1406431251.48'
p504
aS'5.62976197894 1406431280.48'
p505
aS'5.63369270314 1406431309.49'
p506
aS'5.63762617179 1406431338.49'
p507
aS'5.6415623868 1406431367.5'
p508
aS'5.6455013501 1406431396.5'
p509
aS'5.6494430636 1406431425.51'
p510
aS'5.65338752922 1406431454.51'
p511
aS'5.65733474889 1406431483.51'
p512
aS'5.66128472452 1406431512.52'
p513
aS'5.66523745804 1406431541.52'
p514
aS'5.66919295137 1406431570.53'
p515
aS'5.67315120645 1406431599.53'
p516
aS'5.6771122252 1406431628.54'
p517
aS'5.68107600955 1406431657.54'
p518
aS'5.68504256143 1406431686.55'
p519
aS'5.68901188277 1406431715.55'
p520
aS'5.69298397551 1406431744.56'
p521
aS'5.69695884159 1406431773.56'
p522
aS'5.70093648293 1406431802.57'
p523
aS'5.70491690148 1406431831.57'
p524
aS'5.70903750041 1406431861.58'
p525
aS'5.71302357513 1406431890.58'
p526
aS'5.71701243293 1406431919.59'
p527
aS'5.72100407578 1406431948.59'
p528
aS'5.72499850561 1406431977.59'
p529
aS'5.72899572437 1406432006.6'
p530
aS'5.732995734 1406432035.6'
p531
aS'5.73699853646 1406432064.61'
p532
aS'5.74100413369 1406432093.61'
p533
aS'5.74501252765 1406432122.62'
p534
aS'5.74902372028 1406432151.62'
p535
aS'5.75303771355 1406432180.63'
p536
aS'5.7570545094 1406432209.63'
p537
aS'5.7610741098 1406432238.64'
p538
aS'5.7650965167 1406432267.64'
p539
aS'5.76912173206 1406432296.65'
p540
aS'5.77314975785 1406432325.65'
p541
aS'5.77718059602 1406432354.66'
p542
aS'5.78121424854 1406432383.66'
p543
aS'5.78525071737 1406432412.67'
p544
aS'5.78929000449 1406432441.67'
p545
aS'5.79333211185 1406432470.68'
p546
aS'5.79737704142 1406432499.68'
p547
aS'5.80142479519 1406432528.68'
p548
aS'5.80561510071 1406432558.69'
p549
aS'5.80966860633 1406432587.69'
p550
aS'5.81372494212 1406432616.7'
p551
aS'5.81778411006 1406432645.7'
p552
aS'5.82184611212 1406432674.71'
p553
aS'5.8259109503 1406432703.71'
p554
aS'5.82997862656 1406432732.72'
p555
aS'5.8340491429 1406432761.72'
p556
aS'5.83812250128 1406432790.73'
p557
aS'5.8421987037 1406432819.73'
p558
aS'5.84627775215 1406432848.74'
p559
aS'5.8503596486 1406432877.74'
p560
aS'5.85444439505 1406432906.74'
p561
aS'5.85853199349 1406432935.75'
p562
aS'5.86262244591 1406432964.75'
p563
aS'5.8667157543 1406432993.76'
p564
aS'5.87081192065 1406433022.76'
p565
aS'5.87491094697 1406433051.77'
p566
aS'5.87901283524 1406433080.77'
p567
aS'5.88311758747 1406433109.78'
p568
aS'5.88722520565 1406433138.78'
p569
aS'5.8913356918 1406433167.79'
p570
aS'5.8954490479 1406433196.79'
p571
aS'5.89970726611 1406433226.8'
p572
aS'5.90382646728 1406433255.8'
p573
aS'5.9079485445 1406433284.81'
p574
aS'5.91207349976 1406433313.81'
p575
aS'5.91620133509 1406433342.82'
p576
aS'5.92033205249 1406433371.82'
p577
aS'5.92446565398 1406433400.83'
p578
aS'5.92860214157 1406433429.83'
p579
aS'5.93274151726 1406433458.84'
p580
aS'5.93688378309 1406433487.84'
p581
aS'5.94102894107 1406433516.84'
p582
aS'5.94517699321 1406433545.85'
p583
aS'5.94932794154 1406433574.85'
p584
aS'5.95348178809 1406433603.86'
p585
aS'5.95763853486 1406433632.86'
p586
aS'5.96179818389 1406433661.87'
p587
aS'5.96596073721 1406433690.87'
p588
aS'5.97012619685 1406433719.88'
p589
aS'5.97429456482 1406433748.88'
p590
aS'5.97846584316 1406433777.89'
p591
aS'5.98264003392 1406433806.89'
p592
aS'5.9868171391 1406433835.9'
p593
aS'5.99099716077 1406433864.9'
p594
aS'5.99532439233 1406433894.91'
p595
aS'5.9995103538 1406433923.91'
p596
aS'6.00369923791 1406433952.92'
p597
aS'6.00789104673 1406433981.92'
p598
aS'6.01208578229 1406434010.93'
p599
aS'6.01628344662 1406434039.93'
p600
aS'6.02048404179 1406434068.94'
p601
aS'6.02468756983 1406434097.94'
p602
aS'6.02889403279 1406434126.95'
p603
aS'6.03310343272 1406434155.95'
p604
aS'6.03731577167 1406434184.95'
p605
aS'6.0415310517 1406434213.96'
p606
aS'6.04574927485 1406434242.96'
p607
aS'6.04997044319 1406434271.97'
p608
aS'6.05419455876 1406434300.97'
p609
aS'6.05842162363 1406434329.98'
p610
aS'6.06265163985 1406434358.98'
p611
aS'6.06688460949 1406434387.99'
p612
aS'6.0711205346 1406434416.99'
p613
aS'6.07535941726 1406434446.0'
p614
aS'6.07960125953 1406434475.0'
p615
aS'6.08384606346 1406434504.01'
p616
aS'6.08809383114 1406434533.01'
p617
aS'6.09234456463 1406434562.01'
p618
aS'6.09659826599 1406434591.02'
p619
aS'6.10100177208 1406434621.02'
p620
aS'6.10526151795 1406434650.03'
p621
aS'6.10952423799 1406434679.03'
p622
aS'6.11378993428 1406434708.04'
p623
aS'6.1180586089 1406434737.04'
p624
aS'6.12233026392 1406434766.05'
p625
aS'6.12660490143 1406434795.05'
p626
aS'6.13088252352 1406434824.06'
p627
aS'6.13516313225 1406434853.06'
p628
aS'6.13944672973 1406434882.07'
p629
aS'6.14373331803 1406434911.07'
p630
aS'6.14802289925 1406434940.08'
p631
aS'6.15231547547 1406434969.08'
p632
aS'6.15661104879 1406434998.09'
p633
aS'6.16090962129 1406435027.09'
p634
aS'6.16521119508 1406435056.1'
p635
aS'6.16951577225 1406435085.1'
p636
aS'6.17382335488 1406435114.11'
p637
aS'6.1781339451 1406435143.11'
p638
aS'6.18244754498 1406435172.12'
p639
aS'6.18676415664 1406435201.12'
p640
aS'6.19108378218 1406435230.12'
p641
aS'6.19540642369 1406435259.13'
p642
aS'6.19988129783 1406435289.13'
p643
aS'6.20421008181 1406435318.14'
p644
aS'6.20854188816 1406435347.14'
p645
aS'6.21287671901 1406435376.15'
p646
aS'6.21721457645 1406435405.15'
p647
aS'6.2215554626 1406435434.16'
p648
aS'6.22589937957 1406435463.16'
p649
aS'6.23024632949 1406435492.17'
p650
aS'6.23459631447 1406435521.17'
p651
aS'6.23894933662 1406435550.18'
p652
aS'6.24330539808 1406435579.18'
p653
aS'6.24766450095 1406435608.19'
p654
aS'6.25202664737 1406435637.19'
p655
aS'6.25639183946 1406435666.2'
p656
aS'6.26076007935 1406435695.2'
p657
aS'6.26513136916 1406435724.2'
p658
aS'6.26950571102 1406435753.21'
p659
aS'6.27388310707 1406435782.21'
p660
aS'6.27826355943 1406435811.22'
p661
aS'6.28264707025 1406435840.22'
p662
aS'6.28703364165 1406435869.23'
p663
aS'6.29142327577 1406435898.23'
p664
aS'6.29581597476 1406435927.24'
p665
aS'6.30021174075 1406435956.24'
p666
aS'6.30461057588 1406435985.25'
p667
aS'6.30916432697 1406436015.25'
p668
aS'6.31356941284 1406436044.26'
p669
aS'6.31797757435 1406436073.26'
p670
aS'6.32238881366 1406436102.27'
p671
aS'6.32680313292 1406436131.27'
p672
aS'6.33122053428 1406436160.27'
p673
aS'6.33564101988 1406436189.28'
p674
aS'6.34006459189 1406436218.28'
p675
aS'6.34449125245 1406436247.29'
p676
aS'6.34892100373 1406436276.29'
p677
aS'6.35335384788 1406436305.3'
p678
aS'6.35778978706 1406436334.3'
p679
aS'6.36222882343 1406436363.31'
p680
aS'6.36667095916 1406436392.31'
p681
aS'6.3711161964 1406436421.32'
p682
aS'6.37556453733 1406436450.32'
p683
aS'6.38001598411 1406436479.33'
p684
aS'6.38447053891 1406436508.33'
p685
aS'6.3889282039 1406436537.34'
p686
aS'6.39338898124 1406436566.34'
p687
aS'6.39785287313 1406436595.35'
p688
aS'6.40231988172 1406436624.35'
p689
aS'6.4067900092 1406436653.36'
p690
aS'6.41126325774 1406436682.36'
p691
aS'6.41573962952 1406436711.37'
p692
aS'6.42037364791 1406436741.37'
p693
aS'6.42485638061 1406436770.38'
p694
aS'6.42934224316 1406436799.38'
p695
aS'6.43383123777 1406436828.39'
p696
aS'6.43832336661 1406436857.39'
p697
aS'6.44281863188 1406436886.4'
p698
aS'6.44731703576 1406436915.4'
p699
aS'6.45181858044 1406436944.41'
p700
aS'6.45632326812 1406436973.41'
p701
aS'6.460831101 1406437002.41'
p702
aS'6.46534208126 1406437031.42'
p703
aS'6.46985621111 1406437060.42'
p704
aS'6.47437349275 1406437089.43'
p705
aS'6.47889392837 1406437118.43'
p706
aS'6.48341752017 1406437147.44'
p707
aS'6.48794427037 1406437176.44'
p708
aS'6.49247418117 1406437205.45'
p709
aS'6.49700725477 1406437234.45'
p710
aS'6.50154349338 1406437263.46'
p711
aS'6.50608289921 1406437292.46'
p712
aS'6.51062547448 1406437321.47'
p713
aS'6.51517122139 1406437350.47'
p714
aS'6.51972014216 1406437379.48'
p715
aS'6.52442926454 1406437409.48'
p716
aS'6.52898464931 1406437438.49'
p717
aS'6.53354321468 1406437467.49'
p718
aS'6.53810496286 1406437496.49'
p719
aS'6.54266989606 1406437525.5'
p720
aS'6.54723801653 1406437554.5'
p721
aS'6.55180932647 1406437583.51'
p722
aS'6.55638382813 1406437612.51'
p723
aS'6.56096152372 1406437641.52'
p724
aS'6.56554241548 1406437670.52'
p725
aS'6.57012650564 1406437699.53'
p726
aS'6.57471379642 1406437728.53'
p727
aS'6.57930429008 1406437757.54'
p728
aS'6.58389798884 1406437786.54'
p729
aS'6.58849489493 1406437815.55'
p730
aS'6.59309501061 1406437844.55'
p731
aS'6.59769833811 1406437873.55'
p732
aS'6.60230487967 1406437902.56'
p733
aS'6.60691463754 1406437931.56'
p734
aS'6.61152761396 1406437960.57'
p735
aS'6.61614381118 1406437989.57'
p736
aS'6.62076323145 1406438018.58'
p737
aS'6.62538587702 1406438047.58'
p738
aS'6.63001175014 1406438076.59'
p739
aS'6.63480053494 1406438106.59'
p740
aS'6.63943298142 1406438135.6'
p741
aS'6.64406866229 1406438164.6'
p742
aS'6.64870757981 1406438193.61'
p743
aS'6.65334973624 1406438222.61'
p744
aS'6.65799513385 1406438251.62'
p745
aS'6.6626437749 1406438280.62'
p746
aS'6.66729566165 1406438309.63'
p747
aS'6.67195079636 1406438338.63'
p748
aS'6.67660918131 1406438367.63'
p749
aS'6.68127081876 1406438396.64'
p750
aS'6.68593571099 1406438425.64'
p751
aS'6.69060386027 1406438454.65'
p752
aS'6.69527526887 1406438483.65'
p753
aS'6.69994993907 1406438512.66'
p754
aS'6.70462787314 1406438541.66'
p755
aS'6.70930907336 1406438570.67'
p756
aS'6.71399354202 1406438599.67'
p757
aS'6.7186812814 1406438628.68'
p758
aS'6.72337229378 1406438657.68'
p759
aS'6.72806658144 1406438686.69'
p760
aS'6.73276414667 1406438715.69'
p761
aS'6.73746499177 1406438744.69'
p762
aS'6.74216911901 1406438773.7'
p763
aS'6.74703891385 1406438803.7'
p764
aS'6.75174972564 1406438832.71'
p765
aS'6.75646382655 1406438861.71'
p766
aS'6.76118121886 1406438890.72'
p767
aS'6.76590190488 1406438919.72'
p768
aS'6.7706258869 1406438948.73'
p769
aS'6.77535316723 1406438977.73'
p770
aS'6.78008374816 1406439006.74'
p771
aS'6.784817632 1406439035.74'
p772
aS'6.78955482107 1406439064.75'
p773
aS'6.79429531766 1406439093.75'
p774
aS'6.79903912408 1406439122.76'
p775
aS'6.80378624265 1406439151.76'
p776
aS'6.80853667568 1406439180.77'
p777
aS'6.81329042548 1406439209.77'
p778
aS'6.81804749437 1406439238.78'
p779
aS'6.82280788467 1406439267.78'
p780
aS'6.82757159869 1406439296.79'
p781
aS'6.83233863876 1406439325.79'
p782
aS'6.83710900719 1406439354.79'
p783
aS'6.84188270632 1406439383.8'
p784
aS'6.84665973847 1406439412.81'
p785
aS'6.85144010596 1406439441.81'
p786
aS'6.85622381112 1406439470.82'
p787
aS'6.86117598641 1406439500.82'
p788
aS'6.86596648921 1406439529.82'
p789
aS'6.87076033675 1406439558.83'
p790
aS'6.87555753138 1406439587.83'
p791
aS'6.88035807544 1406439616.84'
p792
aS'6.88516197125 1406439645.84'
p793
aS'6.88996922117 1406439674.85'
p794
aS'6.89477982752 1406439703.85'
p795
aS'6.89959379267 1406439732.86'
p796
aS'6.90441111894 1406439761.86'
p797
aS'6.9092318087 1406439790.87'
p798
aS'6.91405586428 1406439819.87'
p799
aS'6.91888328803 1406439848.88'
p800
aS'6.92371408232 1406439877.88'
p801
aS'6.92854824949 1406439906.89'
p802
aS'6.93338579189 1406439935.89'
p803
aS'6.93822671188 1406439964.9'
p804
aS'6.94307101183 1406439993.9'
p805
aS'6.94791869409 1406440022.91'
p806
aS'6.95276976102 1406440051.91'
p807
aS'6.95762421499 1406440080.92'
p808
aS'6.96248205836 1406440109.92'
p809
aS'6.96734329349 1406440138.92'
p810
aS'6.97220792276 1406440167.93'
p811
aS'6.9772438721 1406440197.93'
p812
aS'6.982115414 1406440226.94'
p813
aS'6.98699035723 1406440255.94'
p814
aS'6.99186870416 1406440284.95'
p815
aS'6.99675045718 1406440313.95'
p816
aS'7.00163561866 1406440342.96'
p817
aS'7.00652419098 1406440371.96'
p818
aS'7.01141617653 1406440400.97'
p819
aS'7.01631157767 1406440429.97'
p820
aS'7.02121039681 1406440458.98'
p821
aS'7.02611263633 1406440487.98'
p822
aS'7.03101829861 1406440516.99'
p823
aS'7.03592738604 1406440545.99'
p824
aS'7.04083990102 1406440574.99'
p825
aS'7.04575584594 1406440604.0'
p826
aS'7.0506752232 1406440633.01'
p827
aS'7.05559803518 1406440662.01'
p828
aS'7.0605242843 1406440691.01'
p829
aS'7.06545397294 1406440720.02'
p830
aS'7.07038710351 1406440749.02'
p831
aS'7.07532367842 1406440778.03'
p832
aS'7.08026370006 1406440807.03'
p833
aS'7.08520717085 1406440836.04'
p834
aS'7.09015409319 1406440865.04'
p835
aS'7.09510446949 1406440894.05'
p836
aS'7.10022918566 1406440924.05'
p837
aS'7.10518659644 1406440953.06'
p838
aS'7.1101474685 1406440982.06'
p839
aS'7.11511180426 1406441011.07'
p840
aS'7.12007960615 1406441040.07'
p841
aS'7.12505087657 1406441069.08'
p842
aS'7.13002561796 1406441098.08'
p843
aS'7.13500383273 1406441127.09'
p844
aS'7.13998552332 1406441156.09'
p845
aS'7.14497069214 1406441185.1'
p846
aS'7.14995934163 1406441214.1'
p847
aS'7.15495147422 1406441243.11'
p848
aS'7.15994709233 1406441272.11'
p849
aS'7.16494619841 1406441301.12'
p850
aS'7.16994879489 1406441330.12'
p851
aS'7.17495488419 1406441359.13'
p852
aS'7.17996446878 1406441388.13'
p853
aS'7.18497755107 1406441417.13'
p854
aS'7.18999413353 1406441446.14'
p855
aS'7.19501421858 1406441475.14'
p856
aS'7.20003780867 1406441504.15'
p857
aS'7.20506490626 1406441533.15'
p858
aS'7.21009551379 1406441562.16'
p859
aS'7.21512963372 1406441591.16'
p860
aS'7.22034104275 1406441621.17'
p861
aS'7.22538231614 1406441650.17'
p862
aS'7.23042710937 1406441679.18'
p863
aS'7.23547542491 1406441708.18'
p864
aS'7.24052726519 1406441737.19'
p865
aS'7.24558263269 1406441766.19'
p866
aS'7.25064152988 1406441795.2'
p867
aS'7.2557039592 1406441824.2'
p868
aS'7.26076992314 1406441853.21'
p869
aS'7.26583942415 1406441882.21'
p870
aS'7.27091246472 1406441911.22'
p871
aS'7.2759890473 1406441940.22'
p872
aS'7.28106917437 1406441969.22'
p873
aS'7.28615284841 1406441998.23'
p874
aS'7.29124007189 1406442027.23'
p875
aS'7.2963308473 1406442056.24'
p876
aS'7.3014251771 1406442085.24'
p877
aS'7.30652306379 1406442114.25'
p878
aS'7.31162450985 1406442143.25'
p879
aS'7.31672951775 1406442172.26'
p880
aS'7.32183809 1406442201.26'
p881
aS'7.32695022907 1406442230.27'
p882
aS'7.33206593746 1406442259.27'
p883
aS'7.33718521766 1406442288.28'
p884
aS'7.3424847861 1406442318.28'
p885
aS'7.34761134079 1406442347.29'
p886
aS'7.35274147486 1406442376.29'
p887
aS'7.35787519081 1406442405.3'
p888
aS'7.36301249114 1406442434.3'
p889
aS'7.36815337836 1406442463.31'
p890
aS'7.37329785497 1406442492.31'
p891
aS'7.37844592347 1406442521.32'
p892
aS'7.38359758638 1406442550.32'
p893
aS'7.3887528462 1406442579.33'
p894
aS'7.39391170545 1406442608.33'
p895
aS'7.39907416663 1406442637.34'
p896
aS'7.40424023227 1406442666.34'
p897
aS'7.40940990487 1406442695.34'
p898
aS'7.41458318697 1406442724.35'
p899
aS'7.41976008107 1406442753.35'
p900
aS'7.4249405897 1406442782.36'
p901
aS'7.43012471538 1406442811.36'
p902
aS'7.43531246065 1406442840.37'
p903
aS'7.44050382802 1406442869.37'
p904
aS'7.44569882002 1406442898.38'
p905
aS'7.45089743919 1406442927.38'
p906
aS'7.45609968806 1406442956.39'
p907
aS'7.46130556917 1406442985.39'
p908
aS'7.46651508504 1406443014.4'
p909
aS'7.47190806702 1406443044.4'
p910
aS'7.47712498561 1406443073.41'
p911
aS'7.48234554666 1406443102.41'
p912
aS'7.48756975274 1406443131.42'
p913
aS'7.49279760637 1406443160.42'
p914
aS'7.49802911012 1406443189.43'
p915
aS'7.50326426653 1406443218.43'
p916
aS'7.50850307814 1406443247.44'
p917
aS'7.51374554752 1406443276.44'
p918
aS'7.51899167721 1406443305.45'
p919
aS'7.52424146977 1406443334.45'
p920
aS'7.52949492776 1406443363.45'
p921
aS'7.53475205374 1406443392.46'
p922
aS'7.54001285027 1406443421.46'
p923
aS'7.5452773199 1406443450.47'
p924
aS'7.55054546521 1406443479.47'
p925
aS'7.55581728877 1406443508.48'
p926
aS'7.56109279313 1406443537.48'
p927
aS'7.56637198087 1406443566.49'
p928
aS'7.57165485457 1406443595.49'
p929
aS'7.57694141679 1406443624.5'
p930
aS'7.58223167011 1406443653.5'
p931
aS'7.58752561711 1406443682.51'
p932
aS'7.59282326036 1406443711.51'
p933
aS'7.59812460246 1406443740.52'
p934
aS'7.60361264455 1406443770.52'
p935
aS'7.60892151984 1406443799.53'
p936
aS'7.61423410181 1406443828.53'
p937
aS'7.61955039304 1406443857.54'
p938
aS'7.62487039614 1406443886.54'
p939
aS'7.63019411368 1406443915.54'
p940
aS'7.63552154826 1406443944.55'
p941
aS'7.64085270249 1406443973.55'
p942
aS'7.64618757894 1406444002.56'
p943
aS'7.651894497 1406444033.56'
p944
aS'7.65723708289 1406444062.57'
p945
aS'7.66258339899 1406444091.57'
p946
aS'7.66793344791 1406444120.58'
p947
aS'7.67328723226 1406444149.58'
p948
aS'7.67882956351 1406444179.59'
p949
aS'7.68419095557 1406444208.59'
p950
aS'7.68955609099 1406444237.6'
p951
aS'7.69492497236 1406444266.6'
p952
aS'7.70029760231 1406444295.61'
p953
aS'7.70567398345 1406444324.61'
p954
aS'7.71105411841 1406444353.62'
p955
aS'7.7164380098 1406444382.62'
p956
aS'7.72182566025 1406444411.63'
p957
aS'7.72721707238 1406444440.63'
p958
aS'7.73261224881 1406444469.64'
p959
aS'7.73801119218 1406444498.64'
p960
aS'7.74341390512 1406444527.65'
p961
aS'7.74882039025 1406444556.65'
p962
aS'7.75423065021 1406444585.66'
p963
aS'7.75964468765 1406444614.66'
p964
aS'7.76506250518 1406444643.66'
p965
aS'7.77048410546 1406444672.67'
p966
aS'7.77590949113 1406444701.67'
p967
aS'7.78133866482 1406444730.68'
p968
aS'7.78677162918 1406444759.68'
p969
aS'7.79220838687 1406444788.69'
p970
aS'7.79764894052 1406444817.69'
p971
aS'7.80309329279 1406444846.7'
p972
aS'7.80854144633 1406444875.7'
p973
aS'7.81418147021 1406444905.71'
p974
aS'7.81963736556 1406444934.71'
p975
aS'7.82509707025 1406444963.72'
p976
aS'7.83056058692 1406444992.72'
p977
aS'7.83602791824 1406445021.73'
p978
aS'7.84149906688 1406445050.73'
p979
aS'7.8469740355 1406445079.73'
p980
aS'7.85245282677 1406445108.74'
p981
aS'7.85793544335 1406445137.74'
p982
aS'7.86342188791 1406445166.75'
p983
aS'7.86891216314 1406445195.75'
p984
aS'7.8744062717 1406445224.76'
p985
aS'7.87990421627 1406445253.76'
p986
aS'7.88540599953 1406445282.77'
p987
aS'7.89091162416 1406445311.77'
p988
aS'7.89642109284 1406445340.78'
p989
aS'7.90193440826 1406445369.78'
p990
aS'7.90745157309 1406445398.79'
p991
aS'7.91297259004 1406445427.79'
p992
aS'7.91849746178 1406445456.8'
p993
aS'7.92402619101 1406445485.8'
p994
aS'7.92955878042 1406445514.8'
p995
aS'7.93509523272 1406445543.81'
p996
aS'7.94063555058 1406445572.81'
p997
aS'7.94637098458 1406445602.82'
p998
aS'7.95191917523 1406445631.82'
p999
aS'7.95747123964 1406445660.83'
p1000
aS'7.96302718054 1406445689.83'
p1001
aS'7.96858700061 1406445718.84'
p1002
aS'7.97415070257 1406445747.84'
p1003
aS'7.97971828914 1406445776.85'
p1004
aS'7.98528976302 1406445805.85'
p1005
aS'7.99086512692 1406445834.86'
p1006
aS'7.99644438357 1406445863.86'
p1007
aS'8.00202753568 1406445892.87'
p1008
aS'8.00761458597 1406445921.87'
p1009
aS'8.01320553716 1406445950.87'
p1010
aS'8.01880039198 1406445979.88'
p1011
aS'8.02439915316 1406446008.88'
p1012
aS'8.03000182341 1406446037.89'
p1013
aS'8.03560840547 1406446066.89'
p1014
aS'8.04121890207 1406446095.9'
p1015
aS'8.04683331594 1406446124.9'
p1016
aS'8.05245164982 1406446153.91'
p1017
aS'8.05807390644 1406446182.91'
p1018
aS'8.06370008855 1406446211.92'
p1019
aS'8.06933019889 1406446240.92'
p1020
aS'8.07496424019 1406446269.93'
p1021
aS'8.08079669833 1406446299.93'
p1022
aS'8.08643874559 1406446328.94'
p1023
aS'8.09208473215 1406446357.94'
p1024
aS'8.09773466077 1406446386.95'
p1025
aS'8.10338853419 1406446415.95'
p1026
aS'8.10904635517 1406446444.96'
p1027
aS'8.11470812646 1406446473.96'
p1028
aS'8.12037385083 1406446502.97'
p1029
aS'8.12604353103 1406446531.97'
p1030
aS'8.13171716983 1406446560.97'
p1031
aS'8.13739476998 1406446589.98'
p1032
aS'8.14307633426 1406446618.98'
p1033
aS'8.14876186543 1406446647.99'
p1034
aS'8.15445136627 1406446676.99'
p1035
aS'8.16014483954 1406446706.0'
p1036
aS'8.16584228802 1406446735.0'
p1037
aS'8.17154371448 1406446764.01'
p1038
aS'8.1772491217 1406446793.01'
p1039
aS'8.18295851246 1406446822.02'
p1040
aS'8.18867188954 1406446851.02'
p1041
aS'8.19438925573 1406446880.03'
p1042
aS'8.20011061381 1406446909.03'
p1043
aS'8.20583596656 1406446938.04'
p1044
aS'8.21156531678 1406446967.04'
p1045
aS'8.21749644038 1406446997.05'
p1046
aS'8.22323393199 1406447026.05'
p1047
aS'8.22897542955 1406447055.06'
p1048
aS'8.23472093584 1406447084.06'
p1049
aS'8.24047045367 1406447113.07'
p1050
aS'8.24622398584 1406447142.07'
p1051
aS'8.25198153515 1406447171.08'
p1052
aS'8.25774310441 1406447200.08'
p1053
aS'8.26350869641 1406447229.09'
p1054
aS'8.26927831398 1406447258.09'
p1055
aS'8.27505195993 1406447287.1'
p1056
aS'8.28082963705 1406447316.1'
p1057
aS'8.28661134818 1406447345.11'
p1058
aS'8.29239709612 1406447374.11'
p1059
aS'8.2981868837 1406447403.12'
p1060
aS'8.30398071373 1406447432.12'
p1061
aS'8.30977858903 1406447461.13'
p1062
aS'8.31558051244 1406447490.13'
p1063
aS'8.32138648678 1406447519.13'
p1064
aS'8.32719651487 1406447548.14'
p1065
aS'8.33301059955 1406447577.15'
p1066
aS'8.33882874365 1406447606.15'
p1067
aS'8.34465095001 1406447635.16'
p1068
aS'8.35047722145 1406447664.16'
p1069
aS'8.35630756082 1406447693.17'
p1070
aS'8.36234323016 1406447723.17'
p1071
aS'8.36818185443 1406447752.18'
p1072
aS'8.37402455525 1406447781.18'
p1073
aS'8.37987133547 1406447810.19'
p1074
aS'8.38572219794 1406447839.19'
p1075
aS'8.3915771455 1406447868.2'
p1076
aS'8.39743618102 1406447897.2'
p1077
aS'8.40329930734 1406447926.2'
p1078
aS'8.40916652732 1406447955.21'
p1079
aS'8.41503784382 1406447984.21'
p1080
aS'8.4209132597 1406448013.22'
p1081
aS'8.42679277781 1406448042.22'
p1082
aS'8.43267640104 1406448071.23'
p1083
aS'8.43856413223 1406448100.23'
p1084
aS'8.44445597426 1406448129.24'
p1085
aS'8.45035193001 1406448158.24'
p1086
aS'8.45625200233 1406448187.25'
p1087
aS'8.46215619411 1406448216.25'
p1088
aS'8.46806450823 1406448245.26'
p1089
aS'8.47397694755 1406448274.26'
p1090
aS'8.47989351496 1406448303.27'
p1091
aS'8.48581421335 1406448332.27'
p1092
aS'8.4917390456 1406448361.28'
p1093
aS'8.49766801459 1406448390.28'
p1094
aS'8.50360112321 1406448419.28'
p1095
aS'8.50974318107 1406448449.29'
p1096
aS'8.51568472062 1406448478.29'
p1097
aS'8.52163040858 1406448507.3'
p1098
aS'8.52758024785 1406448536.3'
p1099
aS'8.53353424132 1406448565.31'
p1100
aS'8.5394923919 1406448594.31'
p1101
aS'8.54545470248 1406448623.32'
p1102
aS'8.55142117597 1406448652.32'
p1103
aS'8.55739181528 1406448681.33'
p1104
aS'8.56336662332 1406448710.33'
p1105
aS'8.56934560299 1406448739.34'
p1106
aS'8.57532875721 1406448768.34'
p1107
aS'8.5813160889 1406448797.35'
p1108
aS'8.58730760097 1406448826.35'
p1109
aS'8.59330329634 1406448855.36'
p1110
aS'8.59930317793 1406448884.36'
p1111
aS'8.60530724866 1406448913.37'
p1112
aS'8.61131551146 1406448942.37'
p1113
aS'8.61732796925 1406448971.38'
p1114
aS'8.62334462497 1406449000.38'
p1115
aS'8.62936548154 1406449029.38'
p1116
aS'8.63539054191 1406449058.39'
p1117
aS'8.64141980899 1406449087.39'
p1118
aS'8.64745328574 1406449116.4'
p1119
aS'8.65369924644 1406449146.4'
p1120
aS'8.65974129674 1406449175.41'
p1121
aS'8.66578756563 1406449204.41'
p1122
aS'8.67183805605 1406449233.42'
p1123
aS'8.67789277095 1406449262.42'
p1124
aS'8.68395171327 1406449291.43'
p1125
aS'8.69001488598 1406449320.43'
p1126
aS'8.69608229202 1406449349.44'
p1127
aS'8.70215393434 1406449378.44'
p1128
aS'8.70822981592 1406449407.45'
p1129
aS'8.7143099397 1406449436.45'
p1130
aS'8.72039430865 1406449465.46'
p1131
aS'8.72648292574 1406449494.46'
p1132
aS'8.73257579392 1406449523.47'
p1133
aS'8.73867291617 1406449552.47'
p1134
aS'8.74477429545 1406449581.47'
p1135
aS'8.75087993475 1406449610.48'
p1136
aS'8.75698983703 1406449639.48'
p1137
aS'8.76310400527 1406449668.49'
p1138
aS'8.76922244245 1406449697.49'
p1139
aS'8.77534515155 1406449726.5'
p1140
aS'8.78147213555 1406449755.5'
p1141
aS'8.78760339743 1406449784.51'
p1142
aS'8.79373894019 1406449813.51'
p1143
aS'8.80009056142 1406449843.52'
p1144
aS'8.80623482277 1406449872.52'
p1145
aS'8.81238337407 1406449901.53'
p1146
aS'8.81853621832 1406449930.53'
p1147
aS'8.82469335851 1406449959.54'
p1148
aS'8.83085479764 1406449988.54'
p1149
aS'8.83702053872 1406450017.54'
p1150
aS'8.84319058474 1406450046.55'
p1151
aS'8.84936493872 1406450075.55'
p1152
aS'8.85554360365 1406450104.56'
p1153
aS'8.86172658256 1406450133.56'
p1154
aS'8.86791387845 1406450162.57'
p1155
aS'8.87410549434 1406450191.57'
p1156
aS'8.88030143324 1406450220.58'
p1157
aS'8.88650169817 1406450249.58'
p1158
aS'8.89270629215 1406450278.59'
p1159
aS'8.89891521821 1406450307.59'
p1160
aS'8.90512847936 1406450336.6'
p1161
aS'8.91134607864 1406450365.6'
p1162
aS'8.91756801908 1406450394.61'
p1163
aS'8.9237943037 1406450423.61'
p1164
aS'8.93002493554 1406450452.61'
p1165
aS'8.93625991764 1406450481.62'
p1166
aS'8.94249925303 1406450510.62'
p1167
aS'8.94874294474 1406450539.63'
p1168
aS'8.95520652366 1406450569.63'
p1169
aS'8.96145908765 1406450598.64'
p1170
aS'8.96771601721 1406450627.64'
p1171
aS'8.97397731538 1406450656.65'
p1172
aS'8.98024298522 1406450685.65'
p1173
aS'8.98651302977 1406450714.66'
p1174
aS'8.9927874521 1406450743.66'
p1175
aS'8.99906625526 1406450772.67'
p1176
aS'9.0053494423 1406450801.67'
p1177
aS'9.01163701629 1406450830.68'
p1178
aS'9.0179289803 1406450859.68'
p1179
aS'9.02422533738 1406450888.68'
p1180
aS'9.0305260906 1406450917.69'
p1181
aS'9.03683124304 1406450946.69'
p1182
aS'9.04314079776 1406450975.7'
p1183
aS'9.04945475784 1406451004.7'
p1184
aS'9.05577312636 1406451033.71'
p1185
aS'9.06209590638 1406451062.71'
p1186
aS'9.068423101 1406451091.72'
p1187
aS'9.0747547133 1406451120.72'
p1188
aS'9.08109074635 1406451149.73'
p1189
aS'9.08743120325 1406451178.73'
p1190
aS'9.09377608708 1406451207.74'
p1191
aS'9.10012540094 1406451236.74'
p1192
aS'9.10647914792 1406451265.75'
p1193
aS'9.11305665797 1406451295.75'
p1194
aS'9.1194194336 1406451324.75'
p1195
aS'9.12578665176 1406451353.76'
p1196
aS'9.13215831553 1406451382.76'
p1197
aS'9.13853442803 1406451411.77'
p1198
aS'9.14491499235 1406451440.77'
p1199
aS'9.15130001162 1406451469.78'
p1200
aS'9.15768948893 1406451498.78'
p1201
aS'9.1640834274 1406451527.79'
p1202
aS'9.17048183015 1406451556.79'
p1203
aS'9.17688470029 1406451585.8'
p1204
aS'9.18329204094 1406451614.8'
p1205
aS'9.18970385523 1406451643.81'
p1206
aS'9.19612014627 1406451672.81'
p1207
aS'9.2025409172 1406451701.82'
p1208
aS'9.20896617113 1406451730.82'
p1209
aS'9.21539591121 1406451759.82'
p1210
aS'9.22183014055 1406451788.83'
p1211
aS'9.22826886231 1406451817.83'
p1212
aS'9.2347120796 1406451846.84'
p1213
aS'9.24115979558 1406451875.84'
p1214
aS'9.24761201338 1406451904.85'
p1215
aS'9.25406873615 1406451933.85'
p1216
aS'9.26052996703 1406451962.86'
p1217
aS'9.2672187463 1406451992.86'
p1218
aS'9.27368915858 1406452021.87'
p1219
aS'9.28016408852 1406452050.87'
p1220
aS'9.28664353929 1406452079.88'
p1221
aS'9.29312751404 1406452108.88'
p1222
aS'9.29961601593 1406452137.88'
p1223
aS'9.30610904812 1406452166.89'
p1224
aS'9.31260661377 1406452195.89'
p1225
aS'9.31910871605 1406452224.9'
p1226
aS'9.32561535813 1406452253.9'
p1227
aS'9.33212654317 1406452282.91'
p1228
aS'9.33864227435 1406452311.91'
p1229
aS'9.34516255484 1406452340.92'
p1230
aS'9.35168738782 1406452369.92'
p1231
aS'9.35821677646 1406452398.93'
p1232
aS'9.36475072396 1406452427.93'
p1233
aS'9.37128923348 1406452456.94'
p1234
aS'9.37783230822 1406452485.94'
p1235
aS'9.38437995137 1406452514.95'
p1236
aS'9.3909321661 1406452543.95'
p1237
aS'9.39748895562 1406452572.96'
p1238
aS'9.40405032312 1406452601.96'
p1239
aS'9.4106162718 1406452630.96'
p1240
aS'9.41718680484 1406452659.97'
p1241
aS'9.42376192547 1406452688.97'
p1242
aS'9.43056860539 1406452718.98'
p1243
aS'9.43715306924 1406452747.98'
p1244
aS'9.4437421304 1406452776.99'
p1245
aS'9.45033579206 1406452805.99'
p1246
aS'9.45693405745 1406452835.0'
p1247
aS'9.46353692978 1406452864.0'
p1248
aS'9.47014441226 1406452893.01'
p1249
aS'9.47675650811 1406452922.01'
p1250
aS'9.48337322056 1406452951.02'
p1251
aS'9.48999455283 1406452980.02'
p1252
aS'9.49662050813 1406453009.03'
p1253
aS'9.50325108971 1406453038.03'
p1254
aS'9.50988630079 1406453067.04'
p1255
aS'9.51652614461 1406453096.04'
p1256
aS'9.52317062439 1406453125.05'
p1257
aS'9.52981974337 1406453154.05'
p1258
aS'9.5364735048 1406453183.06'
p1259
aS'9.54313191191 1406453212.06'
p1260
aS'9.54979496795 1406453241.06'
p1261
aS'9.55646267617 1406453270.07'
p1262
aS'9.56313503981 1406453299.07'
p1263
aS'9.56981206212 1406453328.08'
p1264
aS'9.57649374636 1406453357.08'
p1265
aS'9.58318009578 1406453386.09'
p1266
aS'9.5901019217 1406453416.09'
p1267
aS'9.59679777241 1406453445.1'
p1268
aS'9.60349829818 1406453474.1'
p1269
aS'9.6102035023 1406453503.11'
p1270
aS'9.61691338802 1406453532.11'
p1271
aS'9.62362795861 1406453561.12'
p1272
aS'9.63034721734 1406453590.12'
p1273
aS'9.63707116748 1406453619.13'
p1274
aS'9.64379981232 1406453648.13'
p1275
aS'9.65053315513 1406453677.14'
p1276
aS'9.65727119918 1406453706.14'
p1277
aS'9.66401394777 1406453735.14'
p1278
aS'9.67076140417 1406453764.15'
p1279
aS'9.67751357168 1406453793.15'
p1280
aS'9.68427045358 1406453822.16'
p1281
aS'9.69103205316 1406453851.16'
p1282
aS'9.69779837372 1406453880.17'
p1283
aS'9.70456941856 1406453909.17'
p1284
aS'9.71134519097 1406453938.18'
p1285
aS'9.71812569425 1406453967.18'
p1286
aS'9.72491093171 1406453996.19'
p1287
aS'9.73170090665 1406454025.19'
p1288
aS'9.73849562238 1406454054.2'
p1289
aS'9.74529508221 1406454083.2'
p1290
aS'9.75209928946 1406454112.21'
p1291
aS'9.75914312386 1406454142.21'
p1292
aS'9.76595699986 1406454171.22'
p1293
aS'9.77277563335 1406454200.22'
p1294
aS'9.77959902763 1406454229.23'
p1295
aS'9.78642718604 1406454258.23'
p1296
aS'9.79326011189 1406454287.23'
p1297
aS'9.80009780853 1406454316.24'
p1298
aS'9.80694027927 1406454345.24'
p1299
aS'9.81378752746 1406454374.25'
p1300
aS'9.82063955643 1406454403.25'
p1301
aS'9.82749636951 1406454432.26'
p1302
aS'9.83435797005 1406454461.26'
p1303
aS'9.84122436138 1406454490.27'
p1304
aS'9.84809554687 1406454519.27'
p1305
aS'9.85497152984 1406454548.28'
p1306
aS'9.86185231365 1406454577.28'
p1307
aS'9.86873790166 1406454606.29'
p1308
aS'9.87562829722 1406454635.29'
p1309
aS'9.88252350368 1406454664.3'
p1310
aS'9.8894235244 1406454693.3'
p1311
aS'9.89632836274 1406454722.31'
p1312
aS'9.90323802208 1406454751.31'
p1313
aS'9.91015250577 1406454780.32'
p1314
aS'9.91707181718 1406454809.32'
p1315
aS'9.92423480942 1406454839.32'
p1316
aS'9.93116395316 1406454868.33'
p1317
aS'9.93809793485 1406454897.33'
p1318
aS'9.94503675789 1406454926.34'
p1319
aS'9.95198042563 1406454955.34'
p1320
aS'9.95892894148 1406454984.35'
p1321
aS'9.96588230881 1406455013.35'
p1322
aS'9.97284053101 1406455042.36'
p1323
aS'9.97980361147 1406455071.36'
p1324
aS'9.98677155358 1406455100.37'
p1325
aS'9.99374436075 1406455129.37'
p1326
aS'5.0001203396 1406455158.37'
p1327
aS'5.00361144528 1406455187.38'
p1328
aS'5.00710498847 1406455216.38'
p1329
aS'5.01060097086 1406455245.39'
p1330
aS'5.01409939417 1406455274.39'
p1331
aS'5.01760026009 1406455303.4'
p1332
aS'5.02110357032 1406455332.4'
p1333
aS'5.02460932659 1406455361.41'
p1334
aS'5.02811753059 1406455390.41'
p1335
aS'5.03162818403 1406455419.42'
p1336
aS'5.03514128862 1406455448.42'
p1337
aS'5.03865684608 1406455477.43'
p1338
aS'5.04217485812 1406455506.43'
p1339
aS'5.04581676574 1406455536.44'
p1340
aS'5.04933977687 1406455565.44'
p1341
aS'5.05286524777 1406455594.44'
p1342
aS'5.05639318018 1406455623.45'
p1343
aS'5.0599235758 1406455652.45'
p1344
aS'5.06345643636 1406455681.46'
p1345
aS'5.06699176358 1406455710.46'
p1346
aS'5.07052955918 1406455739.47'
p1347
aS'5.07406982488 1406455768.47'
p1348
aS'5.07761256242 1406455797.48'
p1349
aS'5.0811577735 1406455826.48'
p1350
aS'5.08470545987 1406455855.49'
p1351
aS'5.08825562325 1406455884.49'
p1352
aS'5.09180826537 1406455913.5'
p1353
aS'5.09536338796 1406455942.5'
p1354
aS'5.09892099275 1406455971.51'
p1355
aS'5.10248108148 1406456000.51'
p1356
aS'5.10604365587 1406456029.52'
p1357
aS'5.10960871767 1406456058.52'
p1358
aS'5.11317626862 1406456087.53'
p1359
aS'5.11674631044 1406456116.53'
p1360
aS'5.12031884488 1406456145.54'
p1361
aS'5.12389387368 1406456174.54'
p1362
aS'5.12747139858 1406456203.55'
p1363
aS'5.13105142132 1406456232.55'
p1364
aS'5.13475752351 1406456262.56'
p1365
aS'5.13834263345 1406456291.56'
p1366
aS'5.14193024654 1406456320.57'
p1367
aS'5.14552036451 1406456349.57'
p1368
aS'5.14911298912 1406456378.58'
p1369
aS'5.15270812212 1406456407.58'
p1370
aS'5.15630576525 1406456436.59'
p1371
aS'5.15990592027 1406456465.59'
p1372
aS'5.16350858894 1406456494.6'
p1373
aS'5.167113773 1406456523.6'
p1374
aS'5.17072147422 1406456552.61'
p1375
aS'5.17433169436 1406456581.61'
p1376
aS'5.17794443516 1406456610.62'
p1377
aS'5.1815596984 1406456639.62'
p1378
aS'5.18517748583 1406456668.63'
p1379
aS'5.18879779921 1406456697.63'
p1380
aS'5.19242064031 1406456726.63'
p1381
aS'5.1960460109 1406456755.64'
p1382
aS'5.19967391273 1406456784.64'
p1383
aS'5.20330434758 1406456813.65'
p1384
aS'5.20693731722 1406456842.65'
p1385
aS'5.21057282341 1406456871.66'
p1386
aS'5.21421086793 1406456900.66'
p1387
aS'5.21785145254 1406456929.67'
p1388
aS'5.22162024944 1406456959.67'
p1389
aS'5.22526600732 1406456988.68'
p1390
aS'5.22891431068 1406457017.68'
p1391
aS'5.23256516131 1406457046.69'
p1392
aS'5.23621856097 1406457075.69'
p1393
aS'5.23987451145 1406457104.69'
p1394
aS'5.24353301454 1406457133.7'
p1395
aS'5.247194072 1406457162.7'
p1396
aS'5.25085768563 1406457191.71'
p1397
aS'5.25452385722 1406457220.71'
p1398
aS'5.25819258854 1406457249.72'
p1399
aS'5.26186388138 1406457278.72'
p1400
aS'5.26553773754 1406457307.73'
p1401
aS'5.2692141588 1406457336.73'
p1402
aS'5.27289314695 1406457365.74'
p1403
aS'5.27657470379 1406457394.74'
p1404
aS'5.2802588311 1406457423.75'
p1405
aS'5.28394553069 1406457452.75'
p1406
aS'5.28763480435 1406457481.76'
p1407
aS'5.29132665388 1406457510.76'
p1408
aS'5.29502108107 1406457539.76'
p1409
aS'5.29871808773 1406457568.77'
p1410
aS'5.30241767565 1406457597.77'
p1411
aS'5.30611984664 1406457626.78'
p1412
aS'5.30982460251 1406457655.78'
p1413
aS'5.3136598306 1406457685.79'
p1414
aS'5.31736985092 1406457714.79'
p1415
aS'5.32108246158 1406457743.8'
p1416
aS'5.32479766441 1406457772.8'
p1417
aS'5.3285154612 1406457801.81'
p1418
aS'5.33223585378 1406457830.81'
p1419
aS'5.33595884395 1406457859.82'
p1420
aS'5.33968443354 1406457888.82'
p1421
aS'5.34341262434 1406457917.83'
p1422
aS'5.34714341818 1406457946.83'
p1423
aS'5.35087681688 1406457975.83'
p1424
aS'5.35461282225 1406458004.84'
p1425
aS'5.35835143612 1406458033.84'
p1426
aS'5.36209266031 1406458062.85'
p1427
aS'5.36583649663 1406458091.85'
p1428
aS'5.36958294692 1406458120.86'
p1429
aS'5.37333201299 1406458149.86'
p1430
aS'5.37708369668 1406458178.87'
p1431
aS'5.38083799981 1406458207.87'
p1432
aS'5.38459492422 1406458236.88'
p1433
aS'5.38835447172 1406458265.88'
p1434
aS'5.39211664415 1406458294.89'
p1435
aS'5.39588144335 1406458323.89'
p1436
aS'5.39964887115 1406458352.9'
p1437
aS'5.40354897833 1406458382.9'
p1438
aS'5.40732175964 1406458411.91'
p1439
aS'5.41109717511 1406458440.91'
p1440
aS'5.4148752266 1406458469.92'
p1441
aS'5.41865591594 1406458498.92'
p1442
aS'5.42243924498 1406458527.92'
p1443
aS'5.42622521555 1406458556.93'
p1444
aS'5.4300138295 1406458585.93'
p1445
aS'5.43380508868 1406458614.94'
p1446
aS'5.43759899493 1406458643.94'
p1447
aS'5.44139555011 1406458672.95'
p1448
aS'5.44519475605 1406458701.95'
p1449
aS'5.44899661462 1406458730.96'
p1450
aS'5.45280112766 1406458759.96'
p1451
aS'5.45660829703 1406458788.97'
p1452
aS'5.46041812458 1406458817.97'
p1453
aS'5.46423061217 1406458846.98'
p1454
aS'5.46804576166 1406458875.98'
p1455
aS'5.4718635749 1406458904.98'
p1456
aS'5.47568405375 1406458933.99'
p1457
aS'5.47950720008 1406458962.99'
p1458
aS'5.48333301574 1406458992.0'
p1459
aS'5.48716150261 1406459021.0'
p1460
aS'5.4911248192 1406459051.01'
p1461
aS'5.49495874634 1406459080.01'
p1462
aS'5.49879535034 1406459109.02'
p1463
aS'5.50263463307 1406459138.02'
p1464
aS'5.50647659641 1406459167.03'
p1465
aS'5.51032124223 1406459196.03'
p1466
aS'5.51416857239 1406459225.04'
p1467
aS'5.51801858877 1406459254.04'
p1468
aS'5.52187129326 1406459283.05'
p1469
aS'5.52572668771 1406459312.05'
p1470
aS'5.52958477402 1406459341.06'
p1471
aS'5.53344555407 1406459370.06'
p1472
aS'5.53730902973 1406459399.07'
p1473
aS'5.54117520288 1406459428.07'
p1474
aS'5.54504407541 1406459457.08'
p1475
aS'5.5489156492 1406459486.08'
p1476
aS'5.55278992615 1406459515.09'
p1477
aS'5.55666690813 1406459544.09'
p1478
aS'5.56054659704 1406459573.09'
p1479
aS'5.56442899476 1406459602.1'
p1480
aS'5.56831410319 1406459631.1'
p1481
aS'5.57220192422 1406459660.11'
p1482
aS'5.57609245974 1406459689.11'
p1483
aS'5.57998571165 1406459718.12'
p1484
aS'5.58401607416 1406459748.12'
p1485
aS'5.58791485837 1406459777.13'
p1486
aS'5.59181636473 1406459806.13'
p1487
aS'5.59572059514 1406459835.14'
p1488
aS'5.5996275515 1406459864.14'
p1489
aS'5.60353723571 1406459893.15'
p1490
aS'5.60744964969 1406459922.15'
p1491
aS'5.61136479532 1406459951.16'
p1492
aS'5.61528267453 1406459980.16'
p1493
aS'5.61920328922 1406460009.17'
p1494
aS'5.6231266413 1406460038.17'
p1495
aS'5.62705273268 1406460067.18'
p1496
aS'5.63098156528 1406460096.18'
p1497
aS'5.634913141 1406460125.18'
p1498
aS'5.63884746177 1406460154.19'
p1499
aS'5.64278452949 1406460183.19'
p1500
aS'5.64672434609 1406460212.2'
p1501
aS'5.6506669135 1406460241.2'
p1502
aS'5.65461223361 1406460270.21'
p1503
aS'5.65856030837 1406460299.21'
p1504
aS'5.66251113969 1406460328.22'
p1505
aS'5.6664647295 1406460357.22'
p1506
aS'5.67042107972 1406460386.23'
p1507
aS'5.6745167627 1406460416.23'
p1508
aS'5.67847873488 1406460445.24'
p1509
aS'5.68244347334 1406460474.24'
p1510
aS'5.68641097999 1406460503.25'
p1511
aS'5.69038125677 1406460532.25'
p1512
aS'5.69435430561 1406460561.26'
p1513
aS'5.69833012846 1406460590.26'
p1514
aS'5.70230872724 1406460619.26'
p1515
aS'5.70629010389 1406460648.27'
p1516
aS'5.71027426036 1406460677.27'
p1517
aS'5.71426119859 1406460706.28'
p1518
aS'5.71825092051 1406460735.28'
p1519
aS'5.72224342808 1406460764.29'
p1520
aS'5.72623872323 1406460793.29'
p1521
aS'5.73023680791 1406460822.3'
p1522
aS'5.73423768407 1406460851.3'
p1523
aS'5.73824135367 1406460880.31'
p1524
aS'5.74224781864 1406460909.31'
p1525
aS'5.74625708094 1406460938.32'
p1526
aS'5.75026914253 1406460967.32'
p1527
aS'5.75428400535 1406460996.33'
p1528
aS'5.75830167137 1406461025.33'
p1529
aS'5.76232214255 1406461054.34'
p1530
aS'5.76634542083 1406461083.34'
p1531
aS'5.77051038891 1406461113.35'
p1532
aS'5.77453938426 1406461142.35'
p1533
aS'5.77857119267 1406461171.35'
p1534
aS'5.78260581611 1406461200.36'
p1535
aS'5.78664325654 1406461229.36'
p1536
aS'5.79068351593 1406461258.37'
p1537
aS'5.79472659625 1406461287.37'
p1538
aS'5.79877249946 1406461316.38'
p1539
aS'5.80282122754 1406461345.38'
p1540
aS'5.80687278246 1406461374.39'
p1541
aS'5.81092716619 1406461403.39'
p1542
aS'5.81498438071 1406461432.4'
p1543
aS'5.819044428 1406461461.4'
p1544
aS'5.82310731003 1406461490.41'
p1545
aS'5.82717302878 1406461519.41'
p1546
aS'5.83124158623 1406461548.42'
p1547
aS'5.83531298437 1406461577.42'
p1548
aS'5.83938722517 1406461606.42'
p1549
aS'5.84346431063 1406461635.43'
p1550
aS'5.84754424272 1406461664.43'
p1551
aS'5.85162702345 1406461693.44'
p1552
aS'5.85571265478 1406461722.44'
p1553
aS'5.85980113873 1406461751.45'
p1554
aS'5.86389247727 1406461780.45'
p1555
aS'5.86812790251 1406461810.46'
p1556
aS'5.87222505484 1406461839.46'
p1557
aS'5.87632506781 1406461868.47'
p1558
aS'5.88042794343 1406461897.47'
p1559
aS'5.88453368369 1406461926.48'
p1560
aS'5.8886422906 1406461955.48'
p1561
aS'5.89275376616 1406461984.49'
p1562
aS'5.89686811237 1406462013.49'
p1563
aS'5.90098533123 1406462042.49'
p1564
aS'5.90510542475 1406462071.5'
p1565
aS'5.90922839494 1406462100.5'
p1566
aS'5.9133542438 1406462129.51'
p1567
aS'5.91748297335 1406462158.51'
p1568
aS'5.9216145856 1406462187.52'
p1569
aS'5.92574908256 1406462216.52'
p1570
aS'5.92988646624 1406462245.53'
p1571
aS'5.93402673866 1406462274.53'
p1572
aS'5.93816990183 1406462303.54'
p1573
aS'5.94231595778 1406462332.54'
p1574
aS'5.94646490853 1406462361.55'
p1575
aS'5.95061675608 1406462390.55'
p1576
aS'5.95477150248 1406462419.56'
p1577
aS'5.95892914974 1406462448.56'
p1578
aS'5.96308969989 1406462477.57'
p1579
aS'5.96725315495 1406462506.57'
p1580
aS'5.97156323648 1406462536.57'
p1581
aS'5.9757326078 1406462565.58'
p1582
aS'5.9799048902 1406462594.58'
p1583
aS'5.9840800857 1406462623.59'
p1584
aS'5.98825819633 1406462652.59'
p1585
aS'5.99243922415 1406462681.6'
p1586
aS'5.99662317117 1406462710.6'
p1587
aS'6.00081003945 1406462739.61'
p1588
aS'6.00499983102 1406462768.61'
p1589
aS'6.00919254791 1406462797.62'
p1590
aS'6.01338819218 1406462826.62'
p1591
aS'6.01758676587 1406462855.63'
p1592
aS'6.02178827102 1406462884.63'
p1593
aS'6.02599270967 1406462913.64'
p1594
aS'6.03020008389 1406462942.64'
p1595
aS'6.03441039571 1406462971.65'
p1596
aS'6.03862364719 1406463000.65'
p1597
aS'6.04283984038 1406463029.66'
p1598
aS'6.04705897733 1406463058.66'
p1599
aS'6.05128106011 1406463087.66'
p1600
aS'6.05550609076 1406463116.67'
p1601
aS'6.05973407134 1406463145.67'
p1602
aS'6.06396500392 1406463174.68'
p1603
aS'6.06834493936 1406463204.68'
p1604
aS'6.07258188409 1406463233.69'
p1605
aS'6.07682178707 1406463262.69'
p1606
aS'6.08106465036 1406463291.7'
p1607
aS'6.08531047605 1406463320.7'
p1608
aS'6.08955926618 1406463349.71'
p1609
aS'6.09381102284 1406463378.71'
p1610
aS'6.0980657481 1406463407.72'
p1611
aS'6.10232344402 1406463436.72'
p1612
aS'6.10658411268 1406463465.73'
p1613
aS'6.11084775617 1406463494.73'
p1614
aS'6.11511437654 1406463523.74'
p1615
aS'6.11938397589 1406463552.75'
p1616
aS'6.12365655629 1406463581.76'
p1617
aS'6.12793211983 1406463610.76'
p1618
aS'6.13221066858 1406463639.77'
p1619
aS'6.13649220463 1406463668.77'
p1620
aS'6.14077673007 1406463697.77'
p1621
aS'6.14506424699 1406463726.78'
p1622
aS'6.14935475747 1406463755.78'
p1623
aS'6.1536482636 1406463784.79'
p1624
aS'6.15794476747 1406463813.79'
p1625
aS'6.16224427119 1406463842.8'
p1626
aS'6.16654677683 1406463871.8'
p1627
aS'6.17100080596 1406463901.81'
p1628
aS'6.17530942546 1406463930.81'
p1629
aS'6.17962105325 1406463959.82'
p1630
aS'6.18393569144 1406463988.82'
p1631
aS'6.18825334213 1406464017.83'
p1632
aS'6.19257400742 1406464046.83'
p1633
aS'6.19689768942 1406464075.84'
p1634
aS'6.20122439023 1406464104.84'
p1635
aS'6.20555411197 1406464133.84'
p1636
aS'6.20988685673 1406464162.85'
p1637
aS'6.21422262663 1406464191.85'
p1638
aS'6.21856142379 1406464220.86'
p1639
aS'6.22290325032 1406464249.87'
p1640
aS'6.22724810833 1406464278.87'
p1641
aS'6.23159599993 1406464307.88'
p1642
aS'6.23594692725 1406464336.88'
p1643
aS'6.24030089241 1406464365.89'
p1644
aS'6.24465789753 1406464394.89'
p1645
aS'6.24901794473 1406464423.9'
p1646
aS'6.25338103613 1406464452.9'
p1647
aS'6.25774717386 1406464481.91'
p1648
aS'6.26211636004 1406464510.91'
p1649
aS'6.26648859681 1406464539.91'
p1650
aS'6.2708638863 1406464568.92'
p1651
aS'6.27524223063 1406464597.92'
p1652
aS'6.27977476929 1406464627.93'
p1653
aS'6.28415933524 1406464656.93'
p1654
aS'6.28854696251 1406464685.94'
p1655
aS'6.29293765324 1406464714.94'
p1656
aS'6.29733140957 1406464743.95'
p1657
aS'6.30172823364 1406464772.95'
p1658
aS'6.3061281276 1406464801.96'
p1659
aS'6.31053109357 1406464830.96'
p1660
aS'6.31493713372 1406464859.97'
p1661
aS'6.31934625018 1406464888.97'
p1662
aS'6.32375844511 1406464917.98'
p1663
aS'6.32817372065 1406464946.98'
p1664
aS'6.33259207896 1406464975.99'
p1665
aS'6.33701352218 1406465004.99'
p1666
aS'6.34143805248 1406465033.99'
p1667
aS'6.34586567199 1406465063.0'
p1668
aS'6.3502963829 1406465092.0'
p1669
aS'6.35473018734 1406465121.01'
p1670
aS'6.35916708749 1406465150.01'
p1671
aS'6.3636070855 1406465179.02'
p1672
aS'6.36805018353 1406465208.02'
p1673
aS'6.37249638376 1406465237.03'
p1674
aS'6.37694568834 1406465266.03'
p1675
aS'6.38155168629 1406465296.04'
p1676
aS'6.38600731333 1406465325.04'
p1677
aS'6.3904660513 1406465354.05'
p1678
aS'6.39492790238 1406465383.05'
p1679
aS'6.39939286874 1406465412.06'
p1680
aS'6.40386095257 1406465441.06'
p1681
aS'6.40833215603 1406465470.07'
p1682
aS'6.4128064813 1406465499.07'
p1683
aS'6.41728393056 1406465528.08'
p1684
aS'6.421764506 1406465557.08'
p1685
aS'6.4262482098 1406465586.09'
p1686
aS'6.43073504414 1406465615.09'
p1687
aS'6.43522501121 1406465644.09'
p1688
aS'6.43971811319 1406465673.1'
p1689
aS'6.44421435227 1406465702.1'
p1690
aS'6.44871373065 1406465731.11'
p1691
aS'6.45321625051 1406465760.11'
p1692
aS'6.45772191405 1406465789.12'
p1693
aS'6.46223072347 1406465818.12'
p1694
aS'6.46674268095 1406465847.13'
p1695
aS'6.47125778871 1406465876.13'
p1696
aS'6.47577604893 1406465905.14'
p1697
aS'6.48029746382 1406465934.14'
p1698
aS'6.48482203558 1406465963.15'
p1699
aS'6.48950595144 1406465993.15'
p1700
aS'6.49403695261 1406466022.16'
p1701
aS'6.49857111734 1406466051.16'
p1702
aS'6.50310844785 1406466080.17'
p1703
aS'6.50764894634 1406466109.17'
p1704
aS'6.51219261503 1406466138.18'
p1705
aS'6.51673945612 1406466167.18'
p1706
aS'6.52128947184 1406466196.19'
p1707
aS'6.5258426644 1406466225.19'
p1708
aS'6.53039903602 1406466254.2'
p1709
aS'6.53495858892 1406466283.2'
p1710
aS'6.53952132531 1406466312.21'
p1711
aS'6.54408724743 1406466341.21'
p1712
aS'6.5486563575 1406466370.21'
p1713
aS'6.55322865774 1406466399.22'
p1714
aS'6.55780415037 1406466428.22'
p1715
aS'6.56238283764 1406466457.23'
p1716
aS'6.56696472177 1406466486.23'
p1717
aS'6.57154980498 1406466515.24'
p1718
aS'6.57613808953 1406466544.24'
p1719
aS'6.58072957763 1406466573.25'
p1720
aS'6.58532427153 1406466602.25'
p1721
aS'6.58992217346 1406466631.26'
p1722
aS'6.59452328567 1406466660.26'
p1723
aS'6.59928643754 1406466690.27'
p1724
aS'6.60389408792 1406466719.27'
p1725
aS'6.60850495538 1406466748.28'
p1726
aS'6.61311904217 1406466777.28'
p1727
aS'6.61773635053 1406466806.29'
p1728
aS'6.62235688272 1406466835.29'
p1729
aS'6.62698064098 1406466864.3'
p1730
aS'6.63160762758 1406466893.3'
p1731
aS'6.63623784475 1406466922.31'
p1732
aS'6.64087129476 1406466951.31'
p1733
aS'6.64550797987 1406466980.32'
p1734
aS'6.65014790233 1406467009.32'
p1735
aS'6.6547910644 1406467038.32'
p1736
aS'6.65943746835 1406467067.33'
p1737
aS'6.66408711644 1406467096.33'
p1738
aS'6.66874001094 1406467125.34'
p1739
aS'6.6733961541 1406467154.34'
p1740
aS'6.67805554821 1406467183.35'
p1741
aS'6.68271819552 1406467212.35'
p1742
aS'6.68738409831 1406467241.36'
p1743
aS'6.69205325886 1406467270.36'
p1744
aS'6.69672567944 1406467299.37'
p1745
aS'6.70140136232 1406467328.37'
p1746
aS'6.70608030978 1406467357.38'
p1747
aS'6.7107625241 1406467386.38'
p1748
aS'6.71544800757 1406467415.39'
p1749
aS'6.72029850204 1406467445.39'
p1750
aS'6.72499064357 1406467474.4'
p1751
aS'6.72968606117 1406467503.4'
p1752
aS'6.73438475713 1406467532.4'
p1753
aS'6.73908673374 1406467561.41'
p1754
aS'6.74379199329 1406467590.41'
p1755
aS'6.74850053807 1406467619.42'
p1756
aS'6.75321237038 1406467648.42'
p1757
aS'6.75792749252 1406467677.43'
p1758
aS'6.76264590677 1406467706.43'
p1759
aS'6.76736761544 1406467735.44'
p1760
aS'6.77209262082 1406467764.44'
p1761
aS'6.77682092523 1406467793.45'
p1762
aS'6.78155253095 1406467822.45'
p1763
aS'6.78628744031 1406467851.46'
p1764
aS'6.7910256556 1406467880.46'
p1765
aS'6.79576717913 1406467909.47'
p1766
aS'6.80051201322 1406467938.47'
p1767
aS'6.80526016016 1406467967.48'
p1768
aS'6.81001162229 1406467996.48'
p1769
aS'6.8147664019 1406468025.48'
p1770
aS'6.81952450133 1406468054.49'
p1771
aS'6.82428592288 1406468083.49'
p1772
aS'6.82905066887 1406468112.5'
p1773
aS'6.83381874163 1406468141.5'
p1774
aS'6.83875473399 1406468171.51'
p1775
aS'6.84352958217 1406468200.51'
p1776
aS'6.84830776417 1406468229.52'
p1777
aS'6.85308928232 1406468258.52'
p1778
aS'6.85787413894 1406468287.53'
p1779
aS'6.86266233637 1406468316.53'
p1780
aS'6.86745387695 1406468345.54'
p1781
aS'6.87224876299 1406468374.54'
p1782
aS'6.87704699685 1406468403.55'
p1783
aS'6.88184858086 1406468432.55'
p1784
aS'6.88665351735 1406468461.56'
p1785
aS'6.89146180867 1406468490.56'
p1786
aS'6.89627345716 1406468519.57'
p1787
aS'6.90108846516 1406468548.57'
p1788
aS'6.90590683502 1406468577.58'
p1789
aS'6.91072856909 1406468606.58'
p1790
aS'6.91555366971 1406468635.58'
p1791
aS'6.92038213925 1406468664.59'
p1792
aS'6.92521398003 1406468693.59'
p1793
aS'6.93004919444 1406468722.6'
p1794
aS'6.9348877848 1406468751.6'
p1795
aS'6.9397297535 1406468780.61'
p1796
aS'6.94457510288 1406468809.61'
p1797
aS'6.9494238353 1406468838.62'
p1798
aS'6.95427595312 1406468867.62'
p1799
aS'6.9592989504 1406468897.63'
p1800
aS'6.96415796308 1406468926.63'
p1801
aS'6.96902036834 1406468955.64'
p1802
aS'6.97388616855 1406468984.64'
p1803
aS'6.97875536608 1406469013.65'
p1804
aS'6.98362796331 1406469042.65'
p1805
aS'6.98850396261 1406469071.66'
p1806
aS'6.99338336635 1406469100.66'
p1807
aS'6.99826617691 1406469129.67'
p1808
aS'7.00315239667 1406469158.67'
p1809
aS'7.00804202801 1406469187.68'
p1810
aS'7.01293507332 1406469216.68'
p1811
aS'7.01783153497 1406469245.69'
p1812
aS'7.02273141535 1406469274.69'
p1813
aS'7.02763471684 1406469303.69'
p1814
aS'7.03254144185 1406469332.7'
p1815
aS'7.03745159275 1406469361.71'
p1816
aS'7.04236517193 1406469390.71'
p1817
aS'7.04728218181 1406469419.71'
p1818
aS'7.05220262475 1406469448.72'
p1819
aS'7.05712650318 1406469477.72'
p1820
aS'7.06205381947 1406469506.73'
p1821
aS'7.06698457604 1406469535.73'
p1822
aS'7.07191877529 1406469564.74'
p1823
aS'7.07702674469 1406469594.74'
p1824
aS'7.08196795542 1406469623.75'
p1825
aS'7.08691261612 1406469652.75'
p1826
aS'7.09186072921 1406469681.76'
p1827
aS'7.0968122971 1406469710.76'
p1828
aS'7.10176732219 1406469739.77'
p1829
aS'7.1067258069 1406469768.77'
p1830
aS'7.11168775364 1406469797.77'
p1831
aS'7.11665316484 1406469826.78'
p1832
aS'7.12162204291 1406469855.78'
p1833
aS'7.12659439027 1406469884.79'
p1834
aS'7.13157020935 1406469913.79'
p1835
aS'7.13654950256 1406469942.8'
p1836
aS'7.14153227234 1406469971.8'
p1837
aS'7.14651852111 1406470000.81'
p1838
aS'7.1515082513 1406470029.81'
p1839
aS'7.15650146534 1406470058.82'
p1840
aS'7.16149816567 1406470087.82'
p1841
aS'7.16649835471 1406470116.83'
p1842
aS'7.17150203491 1406470145.83'
p1843
aS'7.1765092087 1406470174.83'
p1844
aS'7.18151987851 1406470203.84'
p1845
aS'7.1865340468 1406470232.84'
p1846
aS'7.19155171601 1406470261.85'
p1847
aS'7.19657288857 1406470290.85'
p1848
aS'7.20177089427 1406470320.86'
p1849
aS'7.2067992019 1406470349.86'
p1850
aS'7.21183102033 1406470378.87'
p1851
aS'7.21686635199 1406470407.87'
p1852
aS'7.22190519934 1406470436.88'
p1853
aS'7.22694756484 1406470465.88'
p1854
aS'7.23199345093 1406470494.89'
p1855
aS'7.23704286009 1406470523.89'
p1856
aS'7.24209579477 1406470552.9'
p1857
aS'7.24715225742 1406470581.9'
p1858
aS'7.25221225052 1406470610.91'
p1859
aS'7.25727577653 1406470639.91'
p1860
aS'7.26234283792 1406470668.91'
p1861
aS'7.26741343715 1406470697.92'
p1862
aS'7.2724875767 1406470726.92'
p1863
aS'7.27756525903 1406470755.93'
p1864
aS'7.28264648662 1406470784.93'
p1865
aS'7.28773126194 1406470813.94'
p1866
aS'7.29281958748 1406470842.94'
p1867
aS'7.29791146571 1406470871.95'
p1868
aS'7.30300689911 1406470900.95'
p1869
aS'7.30810589016 1406470929.96'
p1870
aS'7.31320844136 1406470958.96'
p1871
aS'7.31831455517 1406470987.97'
p1872
aS'7.32360049354 1406471017.97'
p1873
aS'7.32871386313 1406471046.97'
p1874
aS'7.3338308029 1406471075.98'
p1875
aS'7.33895131533 1406471104.98'
p1876
aS'7.34407540294 1406471133.99'
p1877
aS'7.3492030682 1406471162.99'
p1878
aS'7.35433431362 1406471192.0'
p1879
aS'7.35946914169 1406471221.0'
p1880
aS'7.36460755493 1406471250.01'
p1881
aS'7.36974955583 1406471279.01'
p1882
aS'7.37489514689 1406471308.02'
p1883
aS'7.38004433063 1406471337.02'
p1884
aS'7.38519710956 1406471366.03'
p1885
aS'7.39035348617 1406471395.03'
p1886
aS'7.39551346299 1406471424.04'
p1887
aS'7.40067704253 1406471453.05'
p1888
aS'7.4058442273 1406471482.05'
p1889
aS'7.41101501982 1406471511.06'
p1890
aS'7.41618942261 1406471540.06'
p1891
aS'7.4213674382 1406471569.07'
p1892
aS'7.42654906909 1406471598.07'
p1893
aS'7.43173431782 1406471627.08'
p1894
aS'7.43692318692 1406471656.08'
p1895
aS'7.44211567891 1406471685.08'
p1896
aS'7.44749103747 1406471715.09'
p1897
aS'7.45269090797 1406471744.09'
p1898
aS'7.45789440905 1406471773.1'
p1899
aS'7.46310154324 1406471802.1'
p1900
aS'7.46831231306 1406471831.11'
p1901
aS'7.47352672107 1406471860.11'
p1902
aS'7.47874476981 1406471889.12'
p1903
aS'7.4839664618 1406471918.12'
p1904
aS'7.48919179961 1406471947.13'
p1905
aS'7.49442078577 1406471976.13'
p1906
aS'7.49965342282 1406472005.14'
p1907
aS'7.50488971333 1406472034.14'
p1908
aS'7.51012965984 1406472063.15'
p1909
aS'7.51537326491 1406472092.15'
p1910
aS'7.52062053108 1406472121.16'
p1911
aS'7.52587146091 1406472150.16'
p1912
aS'7.53112605697 1406472179.17'
p1913
aS'7.53638432181 1406472208.17'
p1914
aS'7.54164625799 1406472237.17'
p1915
aS'7.54691186808 1406472266.18'
p1916
aS'7.55218115464 1406472295.18'
p1917
aS'7.55745412023 1406472324.19'
p1918
aS'7.56273076744 1406472353.19'
p1919
aS'7.56801109882 1406472382.2'
p1920
aS'7.57329511696 1406472411.2'
p1921
aS'7.57876522499 1406472441.21'
p1922
aS'7.5840567517 1406472470.21'
p1923
aS'7.58935197298 1406472499.22'
p1924
aS'7.59465089141 1406472528.22'
p1925
aS'7.59995350956 1406472557.23'
p1926
aS'7.60525983002 1406472586.23'
p1927
aS'7.61056985538 1406472615.24'
p1928
aS'7.61588358823 1406472644.24'
p1929
aS'7.62120103114 1406472673.25'
p1930
aS'7.62652218671 1406472702.25'
p1931
aS'7.63184705754 1406472731.26'
p1932
aS'7.63717564622 1406472760.26'
p1933
aS'7.64250795534 1406472789.27'
p1934
aS'7.6478439875 1406472818.27'
p1935
aS'7.65318374531 1406472847.27'
p1936
aS'7.65852723135 1406472876.28'
p1937
aS'7.66387444824 1406472905.28'
p1938
aS'7.66922539858 1406472934.29'
p1939
aS'7.67458008498 1406472963.29'
p1940
aS'7.67993851004 1406472992.3'
p1941
aS'7.68530067638 1406473021.3'
p1942
aS'7.6906665866 1406473050.31'
p1943
aS'7.69603624333 1406473079.31'
p1944
aS'7.70140964918 1406473108.32'
p1945
aS'7.70697229293 1406473138.32'
p1946
aS'7.71235333437 1406473167.33'
p1947
aS'7.71773813288 1406473196.33'
p1948
aS'7.72312669108 1406473225.34'
p1949
aS'7.72851901159 1406473254.34'
p1950
aS'7.73391509705 1406473283.34'
p1951
aS'7.73931495007 1406473312.35'
p1952
aS'7.7447185733 1406473341.35'
p1953
aS'7.75012596935 1406473370.36'
p1954
aS'7.75553714088 1406473399.36'
p1955
aS'7.76095209051 1406473428.37'
p1956
aS'7.76637082088 1406473457.37'
p1957
aS'7.77179333463 1406473486.38'
p1958
aS'7.77721963441 1406473515.38'
p1959
aS'7.78264972285 1406473544.39'
p1960
aS'7.7880836026 1406473573.39'
p1961
aS'7.79352127631 1406473602.39'
p1962
aS'7.79896274662 1406473631.4'
p1963
aS'7.8044080162 1406473660.4'
p1964
aS'7.80985708769 1406473689.41'
p1965
aS'7.81530996374 1406473718.41'
p1966
aS'7.82076664701 1406473747.42'
p1967
aS'7.82622714016 1406473776.42'
p1968
aS'7.83169144586 1406473805.43'
p1969
aS'7.83734819072 1406473835.43'
p1970
aS'7.84282026118 1406473864.44'
p1971
aS'7.84829615226 1406473893.44'
p1972
aS'7.85377586664 1406473922.45'
p1973
aS'7.85925940697 1406473951.45'
p1974
aS'7.86474677593 1406473980.46'
p1975
aS'7.8702379762 1406474009.46'
p1976
aS'7.87573301045 1406474038.47'
p1977
aS'7.88123188136 1406474067.47'
p1978
aS'7.8867345916 1406474096.48'
p1979
aS'7.89224114386 1406474125.48'
p1980
aS'7.89775154081 1406474154.49'
p1981
aS'7.90326578515 1406474183.49'
p1982
aS'7.90878387956 1406474212.49'
p1983
aS'7.91430582673 1406474241.5'
p1984
aS'7.91983162934 1406474270.5'
p1985
aS'7.9253612901 1406474299.51'
p1986
aS'7.93089481168 1406474328.51'
p1987
aS'7.9364321968 1406474357.52'
p1988
aS'7.94197344814 1406474386.52'
p1989
aS'7.9475185684 1406474415.53'
p1990
aS'7.9530675603 1406474444.53'
p1991
aS'7.95862042652 1406474473.54'
p1992
aS'7.96417716978 1406474502.54'
p1993
aS'7.96973779278 1406474531.55'
p1994
aS'7.97549424701 1406474561.55'
p1995
aS'7.98106277164 1406474590.56'
p1996
aS'7.98663518425 1406474619.56'
p1997
aS'7.99221148753 1406474648.57'
p1998
aS'7.99779168421 1406474677.57'
p1999
aS'8.00337577701 1406474706.57'
p2000
aS'8.00896376865 1406474735.58'
p2001
aS'8.01455566185 1406474764.58'
p2002
aS'8.02015145933 1406474793.59'
p2003
aS'8.02575116383 1406474822.59'
p2004
aS'8.03135477806 1406474851.6'
p2005
aS'8.03696230476 1406474880.6'
p2006
aS'8.04257374665 1406474909.61'
p2007
aS'8.04818910648 1406474938.61'
p2008
aS'8.05380838698 1406474967.62'
p2009
aS'8.05943159089 1406474996.62'
p2010
aS'8.06505872094 1406475025.63'
p2011
aS'8.07068977988 1406475054.63'
p2012
aS'8.07632477044 1406475083.63'
p2013
aS'8.08196369539 1406475112.64'
p2014
aS'8.08760655745 1406475141.64'
p2015
aS'8.09325335938 1406475170.65'
p2016
aS'8.09890410394 1406475199.65'
p2017
aS'8.10475385358 1406475229.66'
p2018
aS'8.11041262783 1406475258.66'
p2019
aS'8.11607535306 1406475287.67'
p2020
aS'8.12174203203 1406475316.67'
p2021
aS'8.12741266751 1406475345.68'
p2022
aS'8.13308726224 1406475374.68'
p2023
aS'8.138765819 1406475403.69'
p2024
aS'8.14444834055 1406475432.69'
p2025
aS'8.15013482966 1406475461.7'
p2026
aS'8.15582528911 1406475490.7'
p2027
aS'8.16151972166 1406475519.7'
p2028
aS'8.16721813008 1406475548.71'
p2029
aS'8.17292051716 1406475577.71'
p2030
aS'8.17862688567 1406475606.72'
p2031
aS'8.1843372384 1406475635.72'
p2032
aS'8.19005157811 1406475664.73'
p2033
aS'8.1957699076 1406475693.73'
p2034
aS'8.20149222966 1406475722.74'
p2035
aS'8.20721854706 1406475751.74'
p2036
aS'8.2129488626 1406475780.75'
p2037
aS'8.21868317908 1406475809.75'
p2038
aS'8.22442149928 1406475838.76'
p2039
aS'8.230163826 1406475867.76'
p2040
aS'8.23591016203 1406475896.77'
p2041
aS'8.24166051019 1406475925.77'
p2042
aS'8.24761337122 1406475955.77'
p2043
aS'8.2533718906 1406475984.78'
p2044
aS'8.25913443061 1406476013.78'
p2045
aS'8.26490099405 1406476042.79'
p2046
aS'8.27067158373 1406476071.79'
p2047
aS'8.27644620245 1406476100.8'
p2048
aS'8.28222485305 1406476129.8'
p2049
aS'8.28800753832 1406476158.81'
p2050
aS'8.29379426109 1406476187.81'
p2051
aS'8.29958502417 1406476216.82'
p2052
aS'8.30537983039 1406476245.82'
p2053
aS'8.31117868256 1406476274.83'
p2054
aS'8.31698158352 1406476303.83'
p2055
aS'8.3227885361 1406476332.84'
p2056
aS'8.32859954311 1406476361.84'
p2057
aS'8.33441460739 1406476390.84'
p2058
aS'8.34023373177 1406476419.85'
p2059
aS'8.34605691909 1406476448.85'
p2060
aS'8.35188417219 1406476477.86'
p2061
aS'8.3577154939 1406476506.86'
p2062
aS'8.36355088706 1406476535.87'
p2063
aS'8.36939035452 1406476564.87'
p2064
aS'8.37523389913 1406476593.88'
p2065
aS'8.38128323875 1406476623.88'
p2066
aS'8.38713508701 1406476652.89'
p2067
aS'8.39299102107 1406476681.89'
p2068
aS'8.39885104376 1406476710.9'
p2069
aS'8.40471515794 1406476739.9'
p2070
aS'8.41058336647 1406476768.91'
p2071
aS'8.41645567221 1406476797.91'
p2072
aS'8.42233207802 1406476826.92'
p2073
aS'8.42821258677 1406476855.92'
p2074
aS'8.43409720131 1406476884.93'
p2075
aS'8.43998592451 1406476913.93'
p2076
aS'8.44587875924 1406476942.94'
p2077
aS'8.45177570838 1406476971.94'
p2078
aS'8.4576767748 1406477000.94'
p2079
aS'8.46358196136 1406477029.95'
p2080
aS'8.46949127095 1406477058.95'
p2081
aS'8.47540470644 1406477087.96'
p2082
aS'8.48132227073 1406477116.96'
p2083
aS'8.48724396668 1406477145.97'
p2084
aS'8.49316979718 1406477174.97'
p2085
aS'8.49909976513 1406477203.98'
p2086
aS'8.5050338734 1406477232.98'
p2087
aS'8.5109721249 1406477261.99'
p2088
aS'8.5169145225 1406477290.99'
p2089
aS'8.52306619649 1406477321.0'
p2090
aS'8.52901703823 1406477350.0'
p2091
aS'8.53497203487 1406477379.01'
p2092
aS'8.54093118932 1406477408.01'
p2093
aS'8.54689450448 1406477437.02'
p2094
aS'8.55286198325 1406477466.02'
p2095
aS'8.55883362854 1406477495.02'
p2096
aS'8.56480944325 1406477524.03'
p2097
aS'8.57078943031 1406477553.03'
p2098
aS'8.57677359262 1406477582.04'
p2099
aS'8.5827619331 1406477611.04'
p2100
aS'8.58875445466 1406477640.05'
p2101
aS'8.59475116023 1406477669.05'
p2102
aS'8.60075205272 1406477698.06'
p2103
aS'8.60675713506 1406477727.06'
p2104
aS'8.61276641018 1406477756.07'
p2105
aS'8.618779881 1406477785.07'
p2106
aS'8.62479755045 1406477814.08'
p2107
aS'8.63081942146 1406477843.08'
p2108
aS'8.63684549697 1406477872.09'
p2109
aS'8.64287577991 1406477901.09'
p2110
aS'8.64891027322 1406477930.1'
p2111
aS'8.65494897984 1406477959.1'
p2112
aS'8.66099190271 1406477988.11'
p2113
aS'8.66724764221 1406478018.11'
p2114
aS'8.67329915206 1406478047.12'
p2115
aS'8.6793548871 1406478076.12'
p2116
aS'8.68541485028 1406478105.13'
p2117
aS'8.69147904456 1406478134.13'
p2118
aS'8.69754747288 1406478163.13'
p2119
aS'8.7036201382 1406478192.14'
p2120
aS'8.70969704349 1406478221.14'
p2121
aS'8.71577819169 1406478250.15'
p2122
aS'8.72186358578 1406478279.15'
p2123
aS'8.72795322872 1406478308.16'
p2124
aS'8.73404712348 1406478337.16'
p2125
aS'8.74014527301 1406478366.17'
p2126
aS'8.74624768031 1406478395.17'
p2127
aS'8.75235434833 1406478424.18'
p2128
aS'8.75846528005 1406478453.18'
p2129
aS'8.76458047845 1406478482.19'
p2130
aS'8.77069994651 1406478511.19'
p2131
aS'8.77682368721 1406478540.2'
p2132
aS'8.78295170353 1406478569.2'
p2133
aS'8.78908399845 1406478598.2'
p2134
aS'8.79522057498 1406478627.21'
p2135
aS'8.80136143608 1406478656.21'
p2136
aS'8.80771856295 1406478686.22'
p2137
aS'8.81386815021 1406478715.22'
p2138
aS'8.82002203113 1406478744.23'
p2139
aS'8.82618020873 1406478773.23'
p2140
aS'8.83234268598 1406478802.24'
p2141
aS'8.83850946591 1406478831.24'
p2142
aS'8.84468055151 1406478860.25'
p2143
aS'8.85085594578 1406478889.25'
p2144
aS'8.85703565175 1406478918.26'
p2145
aS'8.86321967241 1406478947.26'
p2146
aS'8.86940801078 1406478976.27'
p2147
aS'8.87560066988 1406479005.27'
p2148
aS'8.88179765271 1406479034.28'
p2149
aS'8.88799896231 1406479063.28'
p2150
aS'8.89420460169 1406479092.29'
p2151
aS'8.90041457387 1406479121.29'
p2152
aS'8.90662888188 1406479150.29'
p2153
aS'8.91284752875 1406479179.3'
p2154
aS'8.91907051751 1406479208.3'
p2155
aS'8.92529785118 1406479237.31'
p2156
aS'8.93152953281 1406479266.31'
p2157
aS'8.93776556542 1406479295.32'
p2158
aS'8.94400595206 1406479324.32'
p2159
aS'8.95025069576 1406479353.33'
p2160
aS'8.95649979957 1406479382.33'
p2161
aS'8.96296898118 1406479412.34'
p2162
aS'8.96922696495 1406479441.34'
p2163
aS'8.97548931807 1406479470.35'
p2164
aS'8.98175604359 1406479499.35'
p2165
aS'8.98802714457 1406479528.35'
p2166
aS'8.99430262406 1406479557.36'
p2167
aS'9.00058248512 1406479586.36'
p2168
aS'9.0068667308 1406479615.37'
p2169
aS'9.01315536417 1406479644.37'
p2170
aS'9.01944838829 1406479673.38'
p2171
aS'9.02574580623 1406479702.38'
p2172
aS'9.03204762105 1406479731.39'
p2173
aS'9.03835383583 1406479760.39'
p2174
aS'9.04466445363 1406479789.4'
p2175
aS'9.05097947753 1406479818.4'
p2176
aS'9.05729891061 1406479847.41'
p2177
aS'9.06362275595 1406479876.41'
p2178
aS'9.06995101662 1406479905.42'
p2179
aS'9.07628369571 1406479934.42'
p2180
aS'9.08262079631 1406479963.43'
p2181
aS'9.08896232149 1406479992.43'
p2182
aS'9.09530827436 1406480021.43'
p2183
aS'9.101658658 1406480050.44'
p2184
aS'9.10823268626 1406480080.44'
p2185
aS'9.11459209378 1406480109.45'
p2186
aS'9.12095594147 1406480138.45'
p2187
aS'9.12732423242 1406480167.46'
p2188
aS'9.13369696974 1406480196.46'
p2189
aS'9.14007415653 1406480225.47'
p2190
aS'9.1464557959 1406480254.47'
p2191
aS'9.15284189096 1406480283.48'
p2192
aS'9.15923244482 1406480312.48'
p2193
aS'9.16562746059 1406480341.48'
p2194
aS'9.17202694139 1406480370.49'
p2195
aS'9.17843089033 1406480399.49'
p2196
aS'9.18483931054 1406480428.5'
p2197
aS'9.19125220514 1406480457.5'
p2198
aS'9.19766957724 1406480486.51'
p2199
aS'9.20409142999 1406480515.51'
p2200
aS'9.2105177665 1406480544.52'
p2201
aS'9.2169485899 1406480573.52'
p2202
aS'9.22338390334 1406480602.53'
p2203
aS'9.22982370993 1406480631.53'
p2204
aS'9.23626801283 1406480660.54'
p2205
aS'9.24271681517 1406480689.54'
p2206
aS'9.24917012009 1406480718.55'
p2207
aS'9.25562793074 1406480747.55'
p2208
aS'9.26231316932 1406480777.55'
p2209
aS'9.2687801565 1406480806.56'
p2210
aS'9.27525165895 1406480835.56'
p2211
aS'9.28172767984 1406480864.57'
p2212
aS'9.28820822232 1406480893.57'
p2213
aS'9.29469328954 1406480922.58'
p2214
aS'9.30118288466 1406480951.58'
p2215
aS'9.30767701084 1406480980.59'
p2216
aS'9.31417567125 1406481009.59'
p2217
aS'9.32067886905 1406481038.6'
p2218
aS'9.32718660742 1406481067.6'
p2219
aS'9.33369888951 1406481096.61'
p2220
aS'9.34021571851 1406481125.61'
p2221
aS'9.34673709759 1406481154.62'
p2222
aS'9.35326302992 1406481183.62'
p2223
aS'9.35979351869 1406481212.63'
p2224
aS'9.36632856707 1406481241.63'
p2225
aS'9.37286817825 1406481270.64'
p2226
aS'9.37941235542 1406481299.64'
p2227
aS'9.38596110175 1406481328.65'
p2228
aS'9.39251442046 1406481357.65'
p2229
aS'9.39907231471 1406481386.65'
p2230
aS'9.40563478772 1406481415.66'
p2231
aS'9.41220184268 1406481444.66'
p2232
aS'9.41900017287 1406481474.67'
p2233
aS'9.4255765596 1406481503.67'
p2234
aS'9.43215753798 1406481532.68'
p2235
aS'9.43874311124 1406481561.68'
p2236
aS'9.44533328257 1406481590.69'
p2237
aS'9.45192805518 1406481619.69'
p2238
aS'9.4585274323 1406481648.7'
p2239
aS'9.46513141713 1406481677.7'
p2240
aS'9.47174001288 1406481706.71'
p2241
aS'9.47835322279 1406481735.71'
p2242
aS'9.48497105008 1406481764.72'
p2243
aS'9.49159349795 1406481793.72'
p2244
aS'9.49822056965 1406481822.73'
p2245
aS'9.5048522684 1406481851.73'
p2246
aS'9.51148859743 1406481880.74'
p2247
aS'9.51812955997 1406481909.74'
p2248
aS'9.52477515926 1406481938.74'
p2249
aS'9.53142539854 1406481967.75'
p2250
aS'9.53808028105 1406481996.75'
p2251
aS'9.54473981002 1406482025.76'
p2252
aS'9.5514039887 1406482054.76'
p2253
aS'9.55807282034 1406482083.77'
p2254
aS'9.56474630819 1406482112.77'
p2255
aS'9.5714244555 1406482141.78'
p2256
aS'9.57810726552 1406482170.78'
p2257
aS'9.58502542739 1406482200.79'
p2258
aS'9.59171773366 1406482229.79'
p2259
aS'9.59841471254 1406482258.8'
p2260
aS'9.60511636727 1406482287.8'
p2261
aS'9.61182270113 1406482316.81'
p2262
aS'9.61853371738 1406482345.81'
p2263
aS'9.62524941928 1406482374.81'
p2264
aS'9.63196981013 1406482403.82'
p2265
aS'9.63869489317 1406482432.82'
p2266
aS'9.6454246717 1406482461.83'
p2267
aS'9.65215914899 1406482490.83'
p2268
aS'9.65889832833 1406482519.84'
p2269
aS'9.66564221298 1406482548.84'
p2270
aS'9.67239080625 1406482577.85'
p2271
aS'9.67914411141 1406482606.85'
p2272
aS'9.68590213176 1406482635.86'
p2273
aS'9.69266487059 1406482664.86'
p2274
aS'9.69943233119 1406482693.87'
p2275
aS'9.70620451686 1406482722.87'
p2276
aS'9.7129814309 1406482751.88'
p2277
aS'9.71976307661 1406482780.88'
p2278
aS'9.7265494573 1406482809.89'
p2279
aS'9.73334057627 1406482838.89'
p2280
aS'9.74013643682 1406482867.89'
p2281
aS'9.74717163059 1406482897.9'
p2282
aS'9.75397714804 1406482926.9'
p2283
aS'9.76078741714 1406482955.91'
p2284
aS'9.7676024412 1406482984.91'
p2285
aS'9.77442222354 1406483013.92'
p2286
aS'9.78124676748 1406483042.92'
p2287
aS'9.78807607635 1406483071.93'
p2288
aS'9.79491015346 1406483100.93'
p2289
aS'9.80174900217 1406483129.94'
p2290
aS'9.80859262578 1406483158.94'
p2291
aS'9.81544102764 1406483187.95'
p2292
aS'9.82229421109 1406483216.95'
p2293
aS'9.82915217946 1406483245.96'
p2294
aS'9.83601493609 1406483274.96'
p2295
aS'9.84288248433 1406483303.97'
p2296
aS'9.84975482752 1406483332.97'
p2297
aS'9.85663196901 1406483361.97'
p2298
aS'9.86351391215 1406483390.98'
p2299
aS'9.87040066029 1406483419.98'
p2300
aS'9.87729221679 1406483448.99'
p2301
aS'9.88418858501 1406483477.99'
p2302
aS'9.8910897683 1406483507.0'
p2303
aS'9.89799577002 1406483536.0'
p2304
aS'9.90490659355 1406483565.01'
p2305
aS'9.91182224224 1406483594.01'
p2306
aS'9.91898144278 1406483624.02'
p2307
aS'9.92590691859 1406483653.02'
p2308
aS'9.9328372298 1406483682.03'
p2309
aS'9.93977237978 1406483711.03'
p2310
aS'9.94671237192 1406483740.04'
p2311
aS'9.95365720959 1406483769.04'
p2312
aS'9.96060689617 1406483798.05'
p2313
aS'9.96756143505 1406483827.05'
p2314
aS'9.97452082963 1406483856.06'
p2315
aS'9.98148508328 1406483885.06'
p2316
aS'9.98845419941 1406483914.07'
p2317
aS'9.9954281814 1406483943.07'
p2318
aS'5.0009627972 1406483972.08'
p2319
aS'5.00445449109 1406484001.08'
p2320
aS'5.0079486229 1406484030.09'
p2321
aS'5.01144519432 1406484059.09'
p2322
aS'5.01494420706 1406484088.09'
p2323
aS'5.01844566283 1406484117.1'
p2324
aS'5.02194956334 1406484146.1'
p2325
aS'5.02545591028 1406484175.11'
p2326
aS'5.02896470536 1406484204.11'
p2327
aS'5.03247595031 1406484233.12'
p2328
aS'5.03598964682 1406484262.12'
p2329
aS'5.0395057966 1406484291.13'
p2330
aS'5.04302440138 1406484320.13'
p2331
aS'5.04666692262 1406484350.14'
p2332
aS'5.05019052733 1406484379.14'
p2333
aS'5.05371659223 1406484408.15'
p2334
aS'5.05724511905 1406484437.15'
p2335
aS'5.0607761095 1406484466.16'
p2336
aS'5.0643095653 1406484495.16'
p2337
aS'5.06784548818 1406484524.17'
p2338
aS'5.07138387985 1406484553.17'
p2339
aS'5.07492474205 1406484582.17'
p2340
aS'5.07846807649 1406484611.18'
p2341
aS'5.0820138849 1406484640.18'
p2342
aS'5.08556216901 1406484669.19'
p2343
aS'5.08911293054 1406484698.19'
p2344
aS'5.09266617124 1406484727.2'
p2345
aS'5.09622189282 1406484756.2'
p2346
aS'5.09978009702 1406484785.21'
p2347
aS'5.10334078558 1406484814.21'
p2348
aS'5.10690396023 1406484843.22'
p2349
aS'5.11046962269 1406484872.22'
p2350
aS'5.11403777472 1406484901.23'
p2351
aS'5.11760841805 1406484930.23'
p2352
aS'5.12118155442 1406484959.24'
p2353
aS'5.12475718557 1406484988.24'
p2354
aS'5.12833531323 1406485017.25'
p2355
aS'5.13191593917 1406485046.25'
p2356
aS'5.13549906511 1406485075.26'
p2357
aS'5.13920837978 1406485105.26'
p2358
aS'5.14279659733 1406485134.26'
p2359
aS'5.14638732019 1406485163.27'
p2360
aS'5.14998055012 1406485192.27'
p2361
aS'5.15357628885 1406485221.28'
p2362
aS'5.15717453814 1406485250.28'
p2363
aS'5.16077529974 1406485279.29'
p2364
aS'5.16437857541 1406485308.29'
p2365
aS'5.1679843669 1406485337.3'
p2366
aS'5.17159267598 1406485366.3'
p2367
aS'5.17520350439 1406485395.31'
p2368
aS'5.17881685389 1406485424.31'
p2369
aS'5.18243272626 1406485453.32'
p2370
aS'5.18605112324 1406485482.32'
p2371
aS'5.1896720466 1406485511.33'
p2372
aS'5.1932954981 1406485540.33'
p2373
aS'5.19692147952 1406485569.33'
p2374
aS'5.20054999261 1406485598.34'
p2375
aS'5.20418103914 1406485627.34'
p2376
aS'5.20781462089 1406485656.35'
p2377
aS'5.21145073962 1406485685.35'
p2378
aS'5.2150893971 1406485714.36'
p2379
aS'5.21873059511 1406485743.36'
p2380
aS'5.22237433542 1406485772.37'
p2381
aS'5.22614639914 1406485802.37'
p2382
aS'5.2297953172 1406485831.38'
p2383
aS'5.23344678295 1406485860.38'
p2384
aS'5.23710079816 1406485889.39'
p2385
aS'5.24075736463 1406485918.39'
p2386
aS'5.24441648412 1406485947.4'
p2387
aS'5.24807815843 1406485976.4'
p2388
aS'5.25174238933 1406486005.41'
p2389
aS'5.25540917862 1406486034.41'
p2390
aS'5.25907852808 1406486063.41'
p2391
aS'5.26275043949 1406486092.42'
p2392
aS'5.26642491464 1406486121.42'
p2393
aS'5.27010195533 1406486150.43'
p2394
aS'5.27378156335 1406486179.43'
p2395
aS'5.27746374048 1406486208.44'
p2396
aS'5.28114848853 1406486237.44'
p2397
aS'5.28483580928 1406486266.45'
p2398
aS'5.28852570454 1406486295.45'
p2399
aS'5.29221817609 1406486324.46'
p2400
aS'5.29591322575 1406486353.46'
p2401
aS'5.29961085531 1406486382.47'
p2402
aS'5.30331106657 1406486411.47'
p2403
aS'5.30701386133 1406486440.48'
p2404
aS'5.31071924139 1406486469.48'
p2405
aS'5.31455511568 1406486499.49'
p2406
aS'5.31826576108 1406486528.49'
p2407
aS'5.32197899728 1406486557.5'
p2408
aS'5.32569482607 1406486586.5'
p2409
aS'5.32941324927 1406486615.5'
p2410
aS'5.33313426868 1406486644.51'
p2411
aS'5.33685788613 1406486673.51'
p2412
aS'5.34058410343 1406486702.52'
p2413
aS'5.34431292239 1406486731.52'
p2414
aS'5.34804434482 1406486760.53'
p2415
aS'5.35177837255 1406486789.53'
p2416
aS'5.35551500739 1406486818.54'
p2417
aS'5.35925425117 1406486847.54'
p2418
aS'5.36299610571 1406486876.55'
p2419
aS'5.36674057282 1406486905.55'
p2420
aS'5.37048765434 1406486934.56'
p2421
aS'5.37423735208 1406486963.56'
p2422
aS'5.37798966788 1406486992.57'
p2423
aS'5.38174460357 1406487021.57'
p2424
aS'5.38550216096 1406487050.58'
p2425
aS'5.3892623419 1406487079.58'
p2426
aS'5.39302514822 1406487108.59'
p2427
aS'5.39679058174 1406487137.59'
p2428
aS'5.4005586443 1406487166.6'
p2429
aS'5.4044594086 1406487196.6'
p2430
aS'5.40823282557 1406487225.61'
p2431
aS'5.41200887716 1406487254.61'
p2432
aS'5.4157875652 1406487283.62'
p2433
aS'5.41956889154 1406487312.62'
p2434
aS'5.42335285802 1406487341.62'
p2435
aS'5.42713946648 1406487370.63'
p2436
aS'5.43092871877 1406487399.63'
p2437
aS'5.43472061673 1406487428.64'
p2438
aS'5.4385151622 1406487457.64'
p2439
aS'5.44231235705 1406487486.65'
p2440
aS'5.44611220311 1406487515.65'
p2441
aS'5.44991470225 1406487544.66'
p2442
aS'5.4537198563 1406487573.66'
p2443
aS'5.45752766713 1406487602.67'
p2444
aS'5.46133813659 1406487631.67'
p2445
aS'5.46515126654 1406487660.68'
p2446
aS'5.46896705883 1406487689.68'
p2447
aS'5.47278551532 1406487718.68'
p2448
aS'5.47660663787 1406487747.69'
p2449
aS'5.48043042835 1406487776.69'
p2450
aS'5.48425688862 1406487805.7'
p2451
aS'5.48808602054 1406487834.7'
p2452
aS'5.49191782597 1406487863.71'
p2453
aS'5.49575230679 1406487892.72'
p2454
aS'5.49972182843 1406487922.72'
p2455
aS'5.50356175803 1406487951.72'
p2456
aS'5.50740436869 1406487980.73'
p2457
aS'5.51124966228 1406488009.73'
p2458
aS'5.51509764067 1406488038.74'
p2459
aS'5.51894830574 1406488067.74'
p2460
aS'5.52280165935 1406488096.75'
p2461
aS'5.5266577034 1406488125.75'
p2462
aS'5.53051643975 1406488154.76'
p2463
aS'5.53437787028 1406488183.76'
p2464
aS'5.53824199689 1406488212.77'
p2465
aS'5.54210882144 1406488241.77'
p2466
aS'5.54597834583 1406488270.78'
p2467
aS'5.54985057194 1406488299.78'
p2468
aS'5.55372550165 1406488328.79'
p2469
aS'5.55760313685 1406488357.79'
p2470
aS'5.56148347944 1406488386.79'
p2471
aS'5.5653665313 1406488415.8'
p2472
aS'5.56925229432 1406488444.8'
p2473
aS'5.5731407704 1406488473.81'
p2474
aS'5.57703196142 1406488502.81'
p2475
aS'5.5809258693 1406488531.82'
p2476
aS'5.58482249592 1406488560.82'
p2477
aS'5.58872184318 1406488589.83'
p2478
aS'5.59275851569 1406488619.83'
p2479
aS'5.59666340392 1406488648.84'
p2480
aS'5.60057101855 1406488677.84'
p2481
aS'5.6044813615 1406488706.85'
p2482
aS'5.60839443466 1406488735.85'
p2483
aS'5.61231023995 1406488764.86'
p2484
aS'5.61622877928 1406488793.86'
p2485
aS'5.62015005454 1406488822.87'
p2486
aS'5.62407406766 1406488851.87'
p2487
aS'5.62800082053 1406488880.88'
p2488
aS'5.63193031509 1406488909.88'
p2489
aS'5.63586255323 1406488938.89'
p2490
aS'5.63979753688 1406488967.89'
p2491
aS'5.64373526795 1406488996.9'
p2492
aS'5.64767574837 1406489025.9'
p2493
aS'5.65161898004 1406489054.9'
p2494
aS'5.65556496489 1406489083.91'
p2495
aS'5.65951370485 1406489112.91'
p2496
aS'5.66346520184 1406489141.92'
p2497
aS'5.66741945778 1406489170.92'
p2498
aS'5.67137647459 1406489199.93'
p2499
aS'5.67533625422 1406489228.93'
p2500
aS'5.67929879858 1406489257.94'
p2501
aS'5.6832641096 1406489286.94'
p2502
aS'5.68736906896 1406489316.95'
p2503
aS'5.69134001468 1406489345.95'
p2504
aS'5.69531373293 1406489374.96'
p2505
aS'5.69929022565 1406489403.96'
p2506
aS'5.70326949478 1406489432.97'
p2507
aS'5.70725154225 1406489461.97'
p2508
aS'5.71123637 1406489490.98'
p2509
aS'5.71522397997 1406489519.98'
p2510
aS'5.71921437411 1406489548.99'
p2511
aS'5.72320755437 1406489577.99'
p2512
aS'5.72720352267 1406489607.0'
p2513
aS'5.73120228098 1406489636.0'
p2514
aS'5.73520383125 1406489665.01'
p2515
aS'5.73920817541 1406489694.01'
p2516
aS'5.74321531542 1406489723.02'
p2517
aS'5.74722525323 1406489752.02'
p2518
aS'5.7512379908 1406489781.03'
p2519
aS'5.75525353008 1406489810.03'
p2520
aS'5.75927187303 1406489839.04'
p2521
aS'5.7632930216 1406489868.04'
p2522
aS'5.76731697775 1406489897.05'
p2523
aS'5.77134374345 1406489926.05'
p2524
aS'5.77537332065 1406489955.06'
p2525
aS'5.77940571132 1406489984.06'
p2526
aS'5.78358011271 1406490014.07'
p2527
aS'5.7876182334 1406490043.07'
p2528
aS'5.79165917352 1406490072.08'
p2529
aS'5.79570293504 1406490101.08'
p2530
aS'5.79974951994 1406490130.09'
p2531
aS'5.80379893018 1406490159.09'
p2532
aS'5.80785116774 1406490188.1'
p2533
aS'5.81190623458 1406490217.1'
p2534
aS'5.81596413269 1406490246.11'
p2535
aS'5.82002486404 1406490275.11'
p2536
aS'5.82408843062 1406490304.12'
p2537
aS'5.82815483439 1406490333.12'
p2538
aS'5.83222407734 1406490362.13'
p2539
aS'5.83629616146 1406490391.13'
p2540
aS'5.84037108872 1406490420.14'
p2541
aS'5.84444886112 1406490449.14'
p2542
aS'5.84852948063 1406490478.15'
p2543
aS'5.85261294925 1406490507.15'
p2544
aS'5.85669926896 1406490536.16'
p2545
aS'5.86078844177 1406490565.16'
p2546
aS'5.86488046965 1406490594.16'
p2547
aS'5.8689753546 1406490623.17'
p2548
aS'5.87307309861 1406490652.17'
p2549
aS'5.87717370369 1406490681.18'
p2550
aS'5.88141872182 1406490711.18'
p2551
aS'5.88552515385 1406490740.19'
p2552
aS'5.88963445301 1406490769.19'
p2553
aS'5.8937466213 1406490798.2'
p2554
aS'5.89786166073 1406490827.2'
p2555
aS'5.90197957329 1406490856.21'
p2556
aS'5.90610036099 1406490885.21'
p2557
aS'5.91022402585 1406490914.22'
p2558
aS'5.91435056987 1406490943.22'
p2559
aS'5.91847999506 1406490972.23'
p2560
aS'5.92261230343 1406491001.23'
p2561
aS'5.926747497 1406491030.24'
p2562
aS'5.93088557777 1406491059.24'
p2563
aS'5.93502654778 1406491088.25'
p2564
aS'5.93917040902 1406491117.25'
p2565
aS'5.94331716353 1406491146.26'
p2566
aS'5.94746681332 1406491175.26'
p2567
aS'5.95161936042 1406491204.27'
p2568
aS'5.95577480684 1406491233.27'
p2569
aS'5.95993315461 1406491262.27'
p2570
aS'5.96409440576 1406491291.28'
p2571
aS'5.96825856231 1406491320.28'
p2572
aS'5.97242562629 1406491349.29'
p2573
aS'5.97659559974 1406491378.29'
p2574
aS'5.98076848467 1406491407.3'
p2575
aS'5.98508832818 1406491437.3'
p2576
aS'5.98926714278 1406491466.31'
p2577
aS'5.99344887504 1406491495.31'
p2578
aS'5.99763352701 1406491524.32'
p2579
aS'6.00182110072 1406491553.32'
p2580
aS'6.00601159821 1406491582.33'
p2581
aS'6.01020502153 1406491611.33'
p2582
aS'6.01440137271 1406491640.34'
p2583
aS'6.01860065381 1406491669.34'
p2584
aS'6.02280286686 1406491698.35'
p2585
aS'6.02700801391 1406491727.35'
p2586
aS'6.03121609701 1406491756.35'
p2587
aS'6.03542711822 1406491785.36'
p2588
aS'6.03964107958 1406491814.36'
p2589
aS'6.04385798315 1406491843.37'
p2590
aS'6.04807783097 1406491872.37'
p2591
aS'6.05230062511 1406491901.38'
p2592
aS'6.05652636763 1406491930.38'
p2593
aS'6.06075506058 1406491959.39'
p2594
aS'6.06498670602 1406491988.39'
p2595
aS'6.06922130601 1406492017.4'
p2596
aS'6.07345886262 1406492046.4'
p2597
aS'6.0776993779 1406492075.41'
p2598
aS'6.08194285394 1406492104.41'
p2599
aS'6.08633577458 1406492134.42'
p2600
aS'6.09058528059 1406492163.42'
p2601
aS'6.09483775361 1406492192.43'
p2602
aS'6.09909319574 1406492221.43'
p2603
aS'6.10335160903 1406492250.44'
p2604
aS'6.10761299556 1406492279.44'
p2605
aS'6.11187735741 1406492308.45'
p2606
aS'6.11614469666 1406492337.45'
p2607
aS'6.12041501538 1406492366.46'
p2608
aS'6.12468831566 1406492395.46'
p2609
aS'6.12896459958 1406492424.47'
p2610
aS'6.13324386921 1406492453.47'
p2611
aS'6.13752612665 1406492482.48'
p2612
aS'6.14181137398 1406492511.48'
p2613
aS'6.14609961329 1406492540.49'
p2614
aS'6.15039084666 1406492569.49'
p2615
aS'6.1546850762 1406492598.49'
p2616
aS'6.15898230398 1406492627.5'
p2617
aS'6.1632825321 1406492656.5'
p2618
aS'6.16758576267 1406492685.51'
p2619
aS'6.17189199777 1406492714.51'
p2620
aS'6.1762012395 1406492743.52'
p2621
aS'6.18051348996 1406492772.52'
p2622
aS'6.18482875125 1406492801.53'
p2623
aS'6.18914702548 1406492830.53'
p2624
aS'6.19346831474 1406492859.54'
p2625
aS'6.197941789 1406492889.54'
p2626
aS'6.20226921881 1406492918.54'
p2627
aS'6.20659967005 1406492947.55'
p2628
aS'6.21093314482 1406492976.55'
p2629
aS'6.21526964525 1406493005.56'
p2630
aS'6.21960917344 1406493034.56'
p2631
aS'6.22395173151 1406493063.57'
p2632
aS'6.22829732157 1406493092.57'
p2633
aS'6.23264594574 1406493121.58'
p2634
aS'6.23699760614 1406493150.58'
p2635
aS'6.24135230489 1406493179.59'
p2636
aS'6.24571004411 1406493208.59'
p2637
aS'6.25007082592 1406493237.6'
p2638
aS'6.25443465244 1406493266.6'
p2639
aS'6.25880152581 1406493295.61'
p2640
aS'6.26317144815 1406493324.61'
p2641
aS'6.26754442159 1406493353.62'
p2642
aS'6.27192044826 1406493382.62'
p2643
aS'6.27629953028 1406493411.62'
p2644
aS'6.2806816698 1406493440.63'
p2645
aS'6.28506686896 1406493469.63'
p2646
aS'6.28945512987 1406493498.64'
p2647
aS'6.29384645469 1406493527.64'
p2648
aS'6.29839243098 1406493557.65'
p2649
aS'6.30278999586 1406493586.65'
p2650
aS'6.30719063114 1406493615.66'
p2651
aS'6.31159433896 1406493644.66'
p2652
aS'6.31600112147 1406493673.67'
p2653
aS'6.32041098081 1406493702.67'
p2654
aS'6.32482391914 1406493731.68'
p2655
aS'6.3292399386 1406493760.68'
p2656
aS'6.33365904135 1406493789.69'
p2657
aS'6.33808122953 1406493818.69'
p2658
aS'6.3425065053 1406493847.7'
p2659
aS'6.34693487082 1406493876.7'
p2660
aS'6.35136632824 1406493905.71'
p2661
aS'6.35580087972 1406493934.71'
p2662
aS'6.36023852743 1406493963.71'
p2663
aS'6.36467927352 1406493992.72'
p2664
aS'6.36912312016 1406494021.72'
p2665
aS'6.37357006952 1406494050.73'
p2666
aS'6.37802012375 1406494079.73'
p2667
aS'6.38247328503 1406494108.74'
p2668
aS'6.38692955553 1406494137.74'
p2669
aS'6.39138893741 1406494166.75'
p2670
aS'6.39585143286 1406494195.75'
p2671
aS'6.40031704403 1406494224.76'
p2672
aS'6.40478577312 1406494253.76'
p2673
aS'6.40941187967 1406494283.77'
p2674
aS'6.41388695881 1406494312.77'
p2675
aS'6.41836516247 1406494341.77'
p2676
aS'6.42284649283 1406494370.78'
p2677
aS'6.42733095207 1406494399.78'
p2678
aS'6.43181854239 1406494428.79'
p2679
aS'6.43630926596 1406494457.79'
p2680
aS'6.44080312497 1406494486.8'
p2681
aS'6.44530012161 1406494515.8'
p2682
aS'6.44980025808 1406494544.81'
p2683
aS'6.45430353656 1406494573.81'
p2684
aS'6.45880995925 1406494602.82'
p2685
aS'6.46331952834 1406494631.82'
p2686
aS'6.46783224604 1406494660.83'
p2687
aS'6.47234811453 1406494689.83'
p2688
aS'6.47686713602 1406494718.84'
p2689
aS'6.48138931271 1406494747.84'
p2690
aS'6.48591464681 1406494776.85'
p2691
aS'6.49044314051 1406494805.85'
p2692
aS'6.49497479603 1406494834.85'
p2693
aS'6.49950961557 1406494863.86'
p2694
aS'6.50404760134 1406494892.86'
p2695
aS'6.50858875555 1406494921.87'
p2696
aS'6.51313308042 1406494950.87'
p2697
aS'6.51768057815 1406494979.88'
p2698
aS'6.52238822737 1406495009.88'
p2699
aS'6.52694218709 1406495038.89'
p2700
aS'6.5314993264 1406495067.89'
p2701
aS'6.53605964752 1406495096.9'
p2702
aS'6.54062315268 1406495125.9'
p2703
aS'6.5451898441 1406495154.91'
p2704
aS'6.54975972401 1406495183.91'
p2705
aS'6.55433279462 1406495212.92'
p2706
aS'6.55890905817 1406495241.92'
p2707
aS'6.56348851689 1406495270.93'
p2708
aS'6.568071173 1406495299.93'
p2709
aS'6.57265702875 1406495328.94'
p2710
aS'6.57724608636 1406495357.94'
p2711
aS'6.58183834807 1406495386.94'
p2712
aS'6.58643381612 1406495415.95'
p2713
aS'6.59103249274 1406495444.95'
p2714
aS'6.59563438018 1406495473.96'
p2715
aS'6.60023948068 1406495502.96'
p2716
aS'6.60484779648 1406495531.97'
p2717
aS'6.60945932982 1406495560.97'
p2718
aS'6.61407408296 1406495589.98'
p2719
aS'6.61869205814 1406495618.98'
p2720
aS'6.6233132576 1406495647.99'
p2721
aS'6.62793768361 1406495676.99'
p2722
aS'6.63272497033 1406495707.0'
p2723
aS'6.63735596764 1406495736.0'
p2724
aS'6.64199019833 1406495765.01'
p2725
aS'6.64662766466 1406495794.01'
p2726
aS'6.65126836889 1406495823.02'
p2727
aS'6.65591231328 1406495852.02'
p2728
aS'6.66055950009 1406495881.03'
p2729
aS'6.66520993159 1406495910.03'
p2730
aS'6.66986361004 1406495939.04'
p2731
aS'6.6745205377 1406495968.04'
p2732
aS'6.67918071686 1406495997.04'
p2733
aS'6.68384414977 1406496026.05'
p2734
aS'6.68851083871 1406496055.05'
p2735
aS'6.69318078595 1406496084.06'
p2736
aS'6.69785399377 1406496113.06'
p2737
aS'6.70253046444 1406496142.07'
p2738
aS'6.70721020025 1406496171.07'
p2739
aS'6.71189320347 1406496200.08'
p2740
aS'6.71657947638 1406496229.08'
p2741
aS'6.72126902127 1406496258.09'
p2742
aS'6.72596184041 1406496287.09'
p2743
aS'6.73065793611 1406496316.1'
p2744
aS'6.73535731064 1406496345.1'
p2745
aS'6.74022218538 1406496375.1'
p2746
aS'6.74492823771 1406496404.11'
p2747
aS'6.74963757582 1406496433.11'
p2748
aS'6.75435020202 1406496462.12'
p2749
aS'6.75906611859 1406496491.12'
p2750
aS'6.76378532783 1406496520.13'
p2751
aS'6.76850783205 1406496549.13'
p2752
aS'6.77323363354 1406496578.14'
p2753
aS'6.77796273461 1406496607.14'
p2754
aS'6.78269513755 1406496636.15'
p2755
aS'6.78743084468 1406496665.15'
p2756
aS'6.7921698583 1406496694.16'
p2757
aS'6.79691218072 1406496723.16'
p2758
aS'6.80165781425 1406496752.16'
p2759
aS'6.8064067612 1406496781.17'
p2760
aS'6.81115902388 1406496810.17'
p2761
aS'6.81591460462 1406496839.18'
p2762
aS'6.82067350572 1406496868.18'
p2763
aS'6.82543572951 1406496897.19'
p2764
aS'6.83020127831 1406496926.19'
p2765
aS'6.83497015443 1406496955.2'
p2766
aS'6.8397423602 1406496984.2'
p2767
aS'6.84451789795 1406497013.21'
p2768
aS'6.84929676999 1406497042.21'
p2769
aS'6.85424394196 1406497072.22'
p2770
aS'6.85902960477 1406497101.22'
p2771
aS'6.86381860895 1406497130.23'
p2772
aS'6.86861095684 1406497159.23'
p2773
aS'6.87340665077 1406497188.24'
p2774
aS'6.87820569307 1406497217.24'
p2775
aS'6.88300808608 1406497246.25'
p2776
aS'6.88781383214 1406497275.25'
p2777
aS'6.8926229336 1406497304.25'
p2778
aS'6.89743539279 1406497333.26'
p2779
aS'6.90225121206 1406497362.26'
p2780
aS'6.90707039376 1406497391.27'
p2781
aS'6.91189294023 1406497420.27'
p2782
aS'6.91671885382 1406497449.28'
p2783
aS'6.92154813689 1406497478.28'
p2784
aS'6.92638079178 1406497507.29'
p2785
aS'6.93121682086 1406497536.29'
p2786
aS'6.93605622647 1406497565.3'
p2787
aS'6.94089901097 1406497594.3'
p2788
aS'6.94574517673 1406497623.31'
p2789
aS'6.9505947261 1406497652.31'
p2790
aS'6.95544766145 1406497681.32'
p2791
aS'6.96030398514 1406497710.32'
p2792
aS'6.96516369953 1406497739.33'
p2793
aS'6.97019456091 1406497769.33'
p2794
aS'6.97506118095 1406497798.34'
p2795
aS'6.97993119888 1406497827.34'
p2796
aS'6.98480461708 1406497856.35'
p2797
aS'6.98968143792 1406497885.35'
p2798
aS'6.99456166378 1406497914.36'
p2799
aS'6.99944529704 1406497943.36'
p2800
aS'7.00433234007 1406497972.37'
p2801
aS'7.00922279525 1406498001.37'
p2802
aS'7.01411666497 1406498030.37'
p2803
aS'7.01901395161 1406498059.38'
p2804
aS'7.02391465756 1406498088.38'
p2805
aS'7.0288187852 1406498117.39'
p2806
aS'7.03372633693 1406498146.39'
p2807
aS'7.03863731512 1406498175.4'
p2808
aS'7.04355172219 1406498204.4'
p2809
aS'7.04846956052 1406498233.41'
p2810
aS'7.0533908325 1406498262.41'
p2811
aS'7.05831554053 1406498291.42'
p2812
aS'7.06324368702 1406498320.42'
p2813
aS'7.06817527436 1406498349.43'
p2814
aS'7.07311030496 1406498378.43'
p2815
aS'7.07804878121 1406498407.44'
p2816
aS'7.08299070553 1406498436.44'
p2817
aS'7.08793608033 1406498465.44'
p2818
aS'7.09305561885 1406498495.45'
p2819
aS'7.09800802101 1406498524.45'
p2820
aS'7.10296388096 1406498553.46'
p2821
aS'7.10792320111 1406498582.46'
p2822
aS'7.11288598388 1406498611.47'
p2823
aS'7.11785223169 1406498640.47'
p2824
aS'7.12282194695 1406498669.48'
p2825
aS'7.12779513209 1406498698.48'
p2826
aS'7.13277178953 1406498727.49'
p2827
aS'7.1377519217 1406498756.49'
p2828
aS'7.14273553101 1406498785.5'
p2829
aS'7.1477226199 1406498814.5'
p2830
aS'7.1527131908 1406498843.51'
p2831
aS'7.15770724613 1406498872.51'
p2832
aS'7.16270478834 1406498901.51'
p2833
aS'7.16770581985 1406498930.52'
p2834
aS'7.17271034311 1406498959.52'
p2835
aS'7.17771836054 1406498988.53'
p2836
aS'7.18272987459 1406499017.53'
p2837
aS'7.18774488771 1406499046.54'
p2838
aS'7.19276340233 1406499075.54'
p2839
aS'7.19778542089 1406499104.55'
p2840
aS'7.20281094586 1406499133.55'
p2841
aS'7.20783997966 1406499162.56'
p2842
aS'7.21287252476 1406499191.56'
p2843
aS'7.21808230351 1406499221.57'
p2844
aS'7.22312199984 1406499250.57'
p2845
aS'7.22816521491 1406499279.58'
p2846
aS'7.23321195118 1406499308.58'
p2847
aS'7.2382622111 1406499337.58'
p2848
aS'7.24331599713 1406499366.59'
p2849
aS'7.24837331174 1406499395.59'
p2850
aS'7.25343415738 1406499424.6'
p2851
aS'7.25849853653 1406499453.6'
p2852
aS'7.26356645166 1406499482.61'
p2853
aS'7.26863790522 1406499511.61'
p2854
aS'7.27371289969 1406499540.62'
p2855
aS'7.27879143755 1406499569.62'
p2856
aS'7.28387352126 1406499598.63'
p2857
aS'7.28895915331 1406499627.63'
p2858
aS'7.29404833617 1406499656.64'
p2859
aS'7.29914107231 1406499685.64'
p2860
aS'7.30423736423 1406499714.65'
p2861
aS'7.3093372144 1406499743.65'
p2862
aS'7.31444062531 1406499772.65'
p2863
aS'7.31954759944 1406499801.66'
p2864
aS'7.32465813928 1406499830.66'
p2865
aS'7.32977224732 1406499859.67'
p2866
aS'7.33488992606 1406499888.67'
p2867
aS'7.34001117798 1406499917.68'
p2868
aS'7.34531278758 1406499947.68'
p2869
aS'7.35044131679 1406499976.69'
p2870
aS'7.35557342676 1406500005.69'
p2871
aS'7.36070911999 1406500034.7'
p2872
aS'7.36584839899 1406500063.7'
p2873
aS'7.37099126625 1406500092.71'
p2874
aS'7.37613772428 1406500121.71'
p2875
aS'7.3812877756 1406500150.72'
p2876
aS'7.3864414227 1406500179.72'
p2877
aS'7.3915986681 1406500208.72'
p2878
aS'7.39675951431 1406500237.73'
p2879
aS'7.40192396384 1406500266.73'
p2880
aS'7.40709201922 1406500295.74'
p2881
aS'7.41226368296 1406500324.74'
p2882
aS'7.41743895757 1406500353.75'
p2883
aS'7.42261784558 1406500382.75'
p2884
aS'7.42780034952 1406500411.76'
p2885
aS'7.4329864719 1406500440.76'
p2886
aS'7.43817621526 1406500469.77'
p2887
aS'7.44336958211 1406500498.77'
p2888
aS'7.448566575 1406500527.78'
p2889
aS'7.45376719645 1406500556.78'
p2890
aS'7.458971449 1406500585.79'
p2891
aS'7.46417933517 1406500614.79'
p2892
aS'7.46939085752 1406500643.8'
p2893
aS'7.47460601858 1406500672.8'
p2894
aS'7.48000484455 1406500702.8'
p2895
aS'7.48522741634 1406500731.81'
p2896
aS'7.49045363455 1406500760.81'
p2897
aS'7.49568350173 1406500789.82'
p2898
aS'7.50091702042 1406500818.82'
p2899
aS'7.50615419318 1406500847.83'
p2900
aS'7.51139502255 1406500876.83'
p2901
aS'7.5166395111 1406500905.84'
p2902
aS'7.52188766136 1406500934.84'
p2903
aS'7.52713947592 1406500963.85'
p2904
aS'7.53239495731 1406500992.85'
p2905
aS'7.5376541081 1406501021.86'
p2906
aS'7.54291693085 1406501050.86'
p2907
aS'7.54818342812 1406501079.87'
p2908
aS'7.55345360249 1406501108.87'
p2909
aS'7.55872745652 1406501137.88'
p2910
aS'7.56400499278 1406501166.88'
p2911
aS'7.56928621383 1406501195.89'
p2912
aS'7.57457112225 1406501224.89'
p2913
aS'7.57985972063 1406501253.9'
p2914
aS'7.58515201152 1406501282.9'
p2915
aS'7.59044799751 1406501311.9'
p2916
aS'7.59574768119 1406501340.91'
p2917
aS'7.60105106512 1406501369.91'
p2918
aS'7.60654122097 1406501399.92'
p2919
aS'7.611852141 1406501428.92'
p2920
aS'7.61716676914 1406501457.93'
p2921
aS'7.62248510798 1406501486.93'
p2922
aS'7.6278071601 1406501515.94'
p2923
aS'7.63313292811 1406501544.94'
p2924
aS'7.63846241459 1406501573.95'
p2925
aS'7.64379562213 1406501602.95'
p2926
aS'7.64913255335 1406501631.96'
p2927
aS'7.65447321084 1406501660.96'
p2928
aS'7.65981759719 1406501689.96'
p2929
aS'7.66516571502 1406501718.97'
p2930
aS'7.67051756693 1406501747.97'
p2931
aS'7.67587315552 1406501776.98'
p2932
aS'7.68123248341 1406501805.98'
p2933
aS'7.68659555321 1406501834.99'
p2934
aS'7.69196236752 1406501863.99'
p2935
aS'7.69733292897 1406501893.0'
p2936
aS'7.70270724017 1406501922.0'
p2937
aS'7.70808530373 1406501951.01'
p2938
aS'7.71346712228 1406501980.01'
p2939
aS'7.71885269844 1406502009.02'
p2940
aS'7.72424203483 1406502038.02'
p2941
aS'7.72963513408 1406502067.03'
p2942
aS'7.7352181648 1406502097.03'
p2943
aS'7.74061892763 1406502126.04'
p2944
aS'7.7460234613 1406502155.04'
p2945
aS'7.75143176843 1406502184.05'
p2946
aS'7.75684385167 1406502213.05'
p2947
aS'7.76225971365 1406502242.06'
p2948
aS'7.76767935701 1406502271.06'
p2949
aS'7.77310278439 1406502300.06'
p2950
aS'7.77852999843 1406502329.07'
p2951
aS'7.78396100177 1406502358.07'
p2952
aS'7.78939579706 1406502387.08'
p2953
aS'7.79483438695 1406502416.08'
p2954
aS'7.80027677409 1406502445.09'
p2955
aS'7.80572296112 1406502474.09'
p2956
aS'7.81117295071 1406502503.1'
p2957
aS'7.8166267455 1406502532.1'
p2958
aS'7.82208434816 1406502561.11'
p2959
aS'7.82754576133 1406502590.11'
p2960
aS'7.83301098769 1406502619.12'
p2961
aS'7.8384800299 1406502648.12'
p2962
aS'7.84395289061 1406502677.13'
p2963
aS'7.8494295725 1406502706.13'
p2964
aS'7.85491007823 1406502735.13'
p2965
aS'7.86039441048 1406502764.14'
p2966
aS'7.86588257191 1406502793.14'
p2967
aS'7.87156401265 1406502823.15'
p2968
aS'7.87705997274 1406502852.15'
p2969
aS'7.88255977014 1406502881.16'
p2970
aS'7.88806340752 1406502910.16'
p2971
aS'7.89357088756 1406502939.17'
p2972
aS'7.89908221295 1406502968.17'
p2973
aS'7.90459738637 1406502997.18'
p2974
aS'7.91011641051 1406503026.18'
p2975
aS'7.91563928806 1406503055.19'
p2976
aS'7.9211660217 1406503084.19'
p2977
aS'7.92669661413 1406503113.2'
p2978
aS'7.93223106804 1406503142.2'
p2979
aS'7.93776938614 1406503171.21'
p2980
aS'7.94331157111 1406503200.21'
p2981
aS'7.94885762566 1406503229.21'
p2982
aS'7.95440755249 1406503258.22'
p2983
aS'7.9599613543 1406503287.22'
p2984
aS'7.9655190338 1406503316.23'
p2985
aS'7.9710805937 1406503345.23'
p2986
aS'7.9766460367 1406503374.24'
p2987
aS'7.98221536552 1406503403.24'
p2988
aS'7.98778858287 1406503432.25'
p2989
aS'7.99336569146 1406503461.25'
p2990
aS'7.99913921186 1406503491.26'
p2991
aS'8.00472424551 1406503520.26'
p2992
aS'8.01031317866 1406503549.27'
p2993
aS'8.01590601402 1406503578.27'
p2994
aS'8.02150275432 1406503607.28'
p2995
aS'8.0271034023 1406503636.28'
p2996
aS'8.03270796067 1406503665.29'
p2997
aS'8.03831643216 1406503694.29'
p2998
aS'8.04392881952 1406503723.3'
p2999
aS'8.04954512547 1406503752.3'
p3000
aS'8.05516535274 1406503781.3'
p3001
a.